
LED CUBE 8x8x8.elf:     file format elf32-avr

Sections:
Idx Name          Size      VMA       LMA       File off  Algn
  0 .text         00002e6c  00000000  00000000  00000094  2**1
                  CONTENTS, ALLOC, LOAD, READONLY, CODE
  1 .data         00000010  00800060  00002e6c  00002f00  2**0
                  CONTENTS, ALLOC, LOAD, DATA
  2 .bss          00000005  00800070  00800070  00002f10  2**0
                  ALLOC
  3 .comment      00000030  00000000  00000000  00002f10  2**0
                  CONTENTS, READONLY
  4 .note.gnu.avr.deviceinfo 0000003c  00000000  00000000  00002f40  2**2
                  CONTENTS, READONLY
  5 .debug_aranges 00000090  00000000  00000000  00002f7c  2**0
                  CONTENTS, READONLY, DEBUGGING
  6 .debug_info   00000a64  00000000  00000000  0000300c  2**0
                  CONTENTS, READONLY, DEBUGGING
  7 .debug_abbrev 0000070b  00000000  00000000  00003a70  2**0
                  CONTENTS, READONLY, DEBUGGING
  8 .debug_line   00000546  00000000  00000000  0000417b  2**0
                  CONTENTS, READONLY, DEBUGGING
  9 .debug_frame  0000012c  00000000  00000000  000046c4  2**2
                  CONTENTS, READONLY, DEBUGGING
 10 .debug_str    000003de  00000000  00000000  000047f0  2**0
                  CONTENTS, READONLY, DEBUGGING
 11 .debug_loc    00000196  00000000  00000000  00004bce  2**0
                  CONTENTS, READONLY, DEBUGGING
 12 .debug_ranges 00000048  00000000  00000000  00004d64  2**0
                  CONTENTS, READONLY, DEBUGGING

Disassembly of section .text:

00000000 <__vectors>:
       0:	0c 94 1e 15 	jmp	0x2a3c	; 0x2a3c <__ctors_end>
       4:	0c 94 3b 15 	jmp	0x2a76	; 0x2a76 <__bad_interrupt>
       8:	0c 94 3b 15 	jmp	0x2a76	; 0x2a76 <__bad_interrupt>
       c:	0c 94 3b 15 	jmp	0x2a76	; 0x2a76 <__bad_interrupt>
      10:	0c 94 3b 15 	jmp	0x2a76	; 0x2a76 <__bad_interrupt>
      14:	0c 94 3b 15 	jmp	0x2a76	; 0x2a76 <__bad_interrupt>
      18:	0c 94 3b 15 	jmp	0x2a76	; 0x2a76 <__bad_interrupt>
      1c:	0c 94 36 16 	jmp	0x2c6c	; 0x2c6c <__vector_7>
      20:	0c 94 3b 15 	jmp	0x2a76	; 0x2a76 <__bad_interrupt>
      24:	0c 94 3b 15 	jmp	0x2a76	; 0x2a76 <__bad_interrupt>
      28:	0c 94 3b 15 	jmp	0x2a76	; 0x2a76 <__bad_interrupt>
      2c:	0c 94 3b 15 	jmp	0x2a76	; 0x2a76 <__bad_interrupt>
      30:	0c 94 59 15 	jmp	0x2ab2	; 0x2ab2 <__vector_12>
      34:	0c 94 3b 15 	jmp	0x2a76	; 0x2a76 <__bad_interrupt>
      38:	0c 94 3b 15 	jmp	0x2a76	; 0x2a76 <__bad_interrupt>
      3c:	0c 94 3b 15 	jmp	0x2a76	; 0x2a76 <__bad_interrupt>
      40:	0c 94 3b 15 	jmp	0x2a76	; 0x2a76 <__bad_interrupt>
      44:	0c 94 3b 15 	jmp	0x2a76	; 0x2a76 <__bad_interrupt>
      48:	0c 94 3b 15 	jmp	0x2a76	; 0x2a76 <__bad_interrupt>
      4c:	0c 94 3b 15 	jmp	0x2a76	; 0x2a76 <__bad_interrupt>
      50:	0c 94 3b 15 	jmp	0x2a76	; 0x2a76 <__bad_interrupt>

00000054 <__trampolines_end>:
      54:	00 00       	nop
      56:	00 00       	nop
      58:	00 00       	nop
      5a:	00 01       	movw	r0, r0
      5c:	01 00       	.word	0x0001	; ????
      5e:	00 00       	nop
      60:	00 00       	nop
      62:	00 00       	nop
      64:	00 02       	muls	r16, r16
	...
      6e:	04 00       	.word	0x0004	; ????
      70:	00 00       	nop
      72:	00 00       	nop
      74:	00 00       	nop
      76:	00 08       	sbc	r0, r0
	...
      80:	10 00       	.word	0x0010	; ????
      82:	00 00       	nop
      84:	00 00       	nop
      86:	00 00       	nop
      88:	00 20       	and	r0, r0
	...
      92:	40 00       	.word	0x0040	; ????
      94:	00 00       	nop
      96:	00 00       	nop
      98:	00 00       	nop
      9a:	01 80       	ldd	r0, Z+1	; 0x01
      9c:	00 00       	nop
      9e:	00 00       	nop
      a0:	00 00       	nop
      a2:	01 01       	movw	r0, r2
      a4:	01 00       	.word	0x0001	; ????
      a6:	00 00       	nop
      a8:	00 00       	nop
      aa:	00 00       	nop
      ac:	00 02       	muls	r16, r16
      ae:	00 00       	nop
      b0:	00 00       	nop
      b2:	00 00       	nop
      b4:	00 01       	movw	r0, r0
      b6:	04 00       	.word	0x0004	; ????
      b8:	00 00       	nop
      ba:	00 00       	nop
      bc:	00 00       	nop
      be:	01 08       	sbc	r0, r1
      c0:	00 00       	nop
      c2:	00 00       	nop
      c4:	00 00       	nop
      c6:	00 01       	movw	r0, r0
      c8:	10 00       	.word	0x0010	; ????
      ca:	00 00       	nop
      cc:	00 00       	nop
      ce:	00 00       	nop
      d0:	01 20       	and	r0, r1
	...
      da:	40 00       	.word	0x0040	; ????
      dc:	00 00       	nop
      de:	00 00       	nop
      e0:	00 01       	movw	r0, r0
      e2:	01 80       	ldd	r0, Z+1	; 0x01
      e4:	00 00       	nop
      e6:	00 00       	nop
      e8:	00 01       	movw	r0, r0
      ea:	01 01       	movw	r0, r2
      ec:	01 00       	.word	0x0001	; ????
      ee:	00 00       	nop
      f0:	00 00       	nop
      f2:	00 00       	nop
      f4:	00 02       	muls	r16, r16
      f6:	00 00       	nop
      f8:	00 00       	nop
      fa:	00 00       	nop
      fc:	01 00       	.word	0x0001	; ????
      fe:	04 00       	.word	0x0004	; ????
     100:	00 00       	nop
     102:	00 00       	nop
     104:	00 01       	movw	r0, r0
     106:	00 08       	sbc	r0, r0
     108:	00 00       	nop
     10a:	00 00       	nop
     10c:	00 00       	nop
     10e:	01 00       	.word	0x0001	; ????
     110:	10 00       	.word	0x0010	; ????
     112:	00 00       	nop
     114:	00 00       	nop
     116:	00 01       	movw	r0, r0
     118:	00 20       	and	r0, r0
	...
     122:	40 00       	.word	0x0040	; ????
     124:	00 00       	nop
     126:	00 00       	nop
     128:	01 01       	movw	r0, r2
     12a:	01 80       	ldd	r0, Z+1	; 0x01
     12c:	00 00       	nop
     12e:	00 00       	nop
     130:	01 01       	movw	r0, r2
     132:	01 01       	movw	r0, r2
     134:	01 00       	.word	0x0001	; ????
     136:	00 00       	nop
     138:	00 00       	nop
     13a:	00 00       	nop
     13c:	00 02       	muls	r16, r16
     13e:	00 00       	nop
     140:	00 00       	nop
     142:	00 01       	movw	r0, r0
     144:	00 01       	movw	r0, r0
     146:	04 00       	.word	0x0004	; ????
     148:	00 00       	nop
     14a:	00 00       	nop
     14c:	01 00       	.word	0x0001	; ????
     14e:	01 08       	sbc	r0, r1
     150:	00 00       	nop
     152:	00 00       	nop
     154:	00 01       	movw	r0, r0
     156:	00 01       	movw	r0, r0
     158:	10 00       	.word	0x0010	; ????
     15a:	00 00       	nop
     15c:	00 00       	nop
     15e:	01 00       	.word	0x0001	; ????
     160:	01 20       	and	r0, r1
	...
     16a:	40 00       	.word	0x0040	; ????
     16c:	00 00       	nop
     16e:	00 01       	movw	r0, r0
     170:	01 01       	movw	r0, r2
     172:	01 80       	ldd	r0, Z+1	; 0x01
     174:	00 00       	nop
     176:	00 01       	movw	r0, r0
     178:	01 01       	movw	r0, r2
     17a:	01 01       	movw	r0, r2
     17c:	01 00       	.word	0x0001	; ????
     17e:	00 00       	nop
     180:	00 00       	nop
     182:	00 00       	nop
     184:	00 02       	muls	r16, r16
     186:	00 00       	nop
     188:	00 00       	nop
     18a:	01 00       	.word	0x0001	; ????
     18c:	01 00       	.word	0x0001	; ????
     18e:	04 00       	.word	0x0004	; ????
     190:	00 00       	nop
     192:	00 01       	movw	r0, r0
     194:	00 01       	movw	r0, r0
     196:	00 08       	sbc	r0, r0
     198:	00 00       	nop
     19a:	00 00       	nop
     19c:	01 00       	.word	0x0001	; ????
     19e:	01 00       	.word	0x0001	; ????
     1a0:	10 00       	.word	0x0010	; ????
     1a2:	00 00       	nop
     1a4:	00 01       	movw	r0, r0
     1a6:	00 01       	movw	r0, r0
     1a8:	00 20       	and	r0, r0
	...
     1b2:	40 00       	.word	0x0040	; ????
     1b4:	00 00       	nop
     1b6:	01 01       	movw	r0, r2
     1b8:	01 01       	movw	r0, r2
     1ba:	01 80       	ldd	r0, Z+1	; 0x01
     1bc:	00 00       	nop
     1be:	01 01       	movw	r0, r2
     1c0:	01 01       	movw	r0, r2
     1c2:	01 01       	movw	r0, r2
     1c4:	01 00       	.word	0x0001	; ????
     1c6:	00 00       	nop
     1c8:	00 00       	nop
     1ca:	00 00       	nop
     1cc:	00 02       	muls	r16, r16
     1ce:	00 00       	nop
     1d0:	00 01       	movw	r0, r0
     1d2:	00 01       	movw	r0, r0
     1d4:	00 01       	movw	r0, r0
     1d6:	04 00       	.word	0x0004	; ????
     1d8:	00 00       	nop
     1da:	01 00       	.word	0x0001	; ????
     1dc:	01 00       	.word	0x0001	; ????
     1de:	01 08       	sbc	r0, r1
     1e0:	00 00       	nop
     1e2:	00 01       	movw	r0, r0
     1e4:	00 01       	movw	r0, r0
     1e6:	00 01       	movw	r0, r0
     1e8:	10 00       	.word	0x0010	; ????
     1ea:	00 00       	nop
     1ec:	01 00       	.word	0x0001	; ????
     1ee:	01 00       	.word	0x0001	; ????
     1f0:	01 20       	and	r0, r1
	...
     1fa:	40 00       	.word	0x0040	; ????
     1fc:	00 01       	movw	r0, r0
     1fe:	01 01       	movw	r0, r2
     200:	01 01       	movw	r0, r2
     202:	01 80       	ldd	r0, Z+1	; 0x01
     204:	00 01       	movw	r0, r0
     206:	01 01       	movw	r0, r2
     208:	01 01       	movw	r0, r2
     20a:	01 01       	movw	r0, r2
     20c:	01 00       	.word	0x0001	; ????
     20e:	00 00       	nop
     210:	00 00       	nop
     212:	00 00       	nop
     214:	00 02       	muls	r16, r16
     216:	00 00       	nop
     218:	01 00       	.word	0x0001	; ????
     21a:	01 00       	.word	0x0001	; ????
     21c:	01 00       	.word	0x0001	; ????
     21e:	04 00       	.word	0x0004	; ????
     220:	00 01       	movw	r0, r0
     222:	00 01       	movw	r0, r0
     224:	00 01       	movw	r0, r0
     226:	00 08       	sbc	r0, r0
     228:	00 00       	nop
     22a:	01 00       	.word	0x0001	; ????
     22c:	01 00       	.word	0x0001	; ????
     22e:	01 00       	.word	0x0001	; ????
     230:	10 00       	.word	0x0010	; ????
     232:	00 01       	movw	r0, r0
     234:	00 01       	movw	r0, r0
     236:	00 01       	movw	r0, r0
     238:	00 20       	and	r0, r0
	...
     242:	40 00       	.word	0x0040	; ????
     244:	01 01       	movw	r0, r2
     246:	01 01       	movw	r0, r2
     248:	01 01       	movw	r0, r2
     24a:	01 80       	ldd	r0, Z+1	; 0x01
     24c:	01 01       	movw	r0, r2
     24e:	01 01       	movw	r0, r2
     250:	01 01       	movw	r0, r2
     252:	01 00       	.word	0x0001	; ????
     254:	01 00       	.word	0x0001	; ????
     256:	00 00       	nop
     258:	00 00       	nop
     25a:	00 00       	nop
     25c:	00 02       	muls	r16, r16
     25e:	00 01       	movw	r0, r0
     260:	00 01       	movw	r0, r0
     262:	00 01       	movw	r0, r0
     264:	00 00       	nop
     266:	04 00       	.word	0x0004	; ????
     268:	01 00       	.word	0x0001	; ????
     26a:	01 00       	.word	0x0001	; ????
     26c:	01 00       	.word	0x0001	; ????
     26e:	00 08       	sbc	r0, r0
     270:	00 01       	movw	r0, r0
     272:	00 01       	movw	r0, r0
     274:	00 01       	movw	r0, r0
     276:	00 00       	nop
     278:	10 00       	.word	0x0010	; ????
     27a:	01 00       	.word	0x0001	; ????
     27c:	01 00       	.word	0x0001	; ????
     27e:	01 00       	.word	0x0001	; ????
     280:	00 20       	and	r0, r0
	...
     28a:	40 01       	movw	r8, r0
     28c:	01 01       	movw	r0, r2
     28e:	01 01       	movw	r0, r2
     290:	01 01       	movw	r0, r2
     292:	00 80       	ld	r0, Z
     294:	01 01       	movw	r0, r2
     296:	01 01       	movw	r0, r2
     298:	01 01       	movw	r0, r2
     29a:	00 00       	nop
     29c:	01 00       	.word	0x0001	; ????
     29e:	00 00       	nop
     2a0:	00 00       	nop
     2a2:	00 00       	nop
     2a4:	00 02       	muls	r16, r16
     2a6:	01 00       	.word	0x0001	; ????
     2a8:	01 00       	.word	0x0001	; ????
     2aa:	01 00       	.word	0x0001	; ????
     2ac:	00 00       	nop
     2ae:	04 01       	movw	r0, r8
     2b0:	00 01       	movw	r0, r0
     2b2:	00 01       	movw	r0, r0
     2b4:	00 00       	nop
     2b6:	00 08       	sbc	r0, r0
     2b8:	01 00       	.word	0x0001	; ????
     2ba:	01 00       	.word	0x0001	; ????
     2bc:	01 00       	.word	0x0001	; ????
     2be:	00 00       	nop
     2c0:	10 01       	movw	r2, r0
     2c2:	00 01       	movw	r0, r0
     2c4:	00 01       	movw	r0, r0
     2c6:	00 00       	nop
     2c8:	00 20       	and	r0, r0
	...
     2d2:	40 01       	movw	r8, r0
     2d4:	01 01       	movw	r0, r2
     2d6:	01 01       	movw	r0, r2
     2d8:	01 00       	.word	0x0001	; ????
     2da:	00 80       	ld	r0, Z
     2dc:	01 01       	movw	r0, r2
     2de:	01 01       	movw	r0, r2
     2e0:	01 00       	.word	0x0001	; ????
     2e2:	00 00       	nop
     2e4:	01 00       	.word	0x0001	; ????
     2e6:	00 00       	nop
     2e8:	00 00       	nop
     2ea:	00 00       	nop
     2ec:	00 02       	muls	r16, r16
     2ee:	00 01       	movw	r0, r0
     2f0:	00 01       	movw	r0, r0
     2f2:	00 00       	nop
     2f4:	00 00       	nop
     2f6:	04 00       	.word	0x0004	; ????
     2f8:	01 00       	.word	0x0001	; ????
     2fa:	01 00       	.word	0x0001	; ????
     2fc:	00 00       	nop
     2fe:	00 08       	sbc	r0, r0
     300:	00 01       	movw	r0, r0
     302:	00 01       	movw	r0, r0
     304:	00 00       	nop
     306:	00 00       	nop
     308:	10 00       	.word	0x0010	; ????
     30a:	01 00       	.word	0x0001	; ????
     30c:	01 00       	.word	0x0001	; ????
     30e:	00 00       	nop
     310:	00 20       	and	r0, r0
	...
     31a:	40 01       	movw	r8, r0
     31c:	01 01       	movw	r0, r2
     31e:	01 01       	movw	r0, r2
     320:	00 00       	nop
     322:	00 80       	ld	r0, Z
     324:	01 01       	movw	r0, r2
     326:	01 01       	movw	r0, r2
     328:	00 00       	nop
     32a:	00 00       	nop
     32c:	01 00       	.word	0x0001	; ????
     32e:	00 00       	nop
     330:	00 00       	nop
     332:	00 00       	nop
     334:	00 02       	muls	r16, r16
     336:	01 00       	.word	0x0001	; ????
     338:	01 00       	.word	0x0001	; ????
     33a:	00 00       	nop
     33c:	00 00       	nop
     33e:	04 01       	movw	r0, r8
     340:	00 01       	movw	r0, r0
     342:	00 00       	nop
     344:	00 00       	nop
     346:	00 08       	sbc	r0, r0
     348:	01 00       	.word	0x0001	; ????
     34a:	01 00       	.word	0x0001	; ????
     34c:	00 00       	nop
     34e:	00 00       	nop
     350:	10 01       	movw	r2, r0
     352:	00 01       	movw	r0, r0
     354:	00 00       	nop
     356:	00 00       	nop
     358:	00 20       	and	r0, r0
	...
     362:	40 01       	movw	r8, r0
     364:	01 01       	movw	r0, r2
     366:	01 00       	.word	0x0001	; ????
     368:	00 00       	nop
     36a:	00 80       	ld	r0, Z
     36c:	01 01       	movw	r0, r2
     36e:	01 00       	.word	0x0001	; ????
     370:	00 00       	nop
     372:	00 00       	nop
     374:	01 00       	.word	0x0001	; ????
     376:	00 00       	nop
     378:	00 00       	nop
     37a:	00 00       	nop
     37c:	00 02       	muls	r16, r16
     37e:	00 01       	movw	r0, r0
     380:	00 00       	nop
     382:	00 00       	nop
     384:	00 00       	nop
     386:	04 00       	.word	0x0004	; ????
     388:	01 00       	.word	0x0001	; ????
     38a:	00 00       	nop
     38c:	00 00       	nop
     38e:	00 08       	sbc	r0, r0
     390:	00 01       	movw	r0, r0
     392:	00 00       	nop
     394:	00 00       	nop
     396:	00 00       	nop
     398:	10 00       	.word	0x0010	; ????
     39a:	01 00       	.word	0x0001	; ????
     39c:	00 00       	nop
     39e:	00 00       	nop
     3a0:	00 20       	and	r0, r0
     3a2:	00 01       	movw	r0, r0
     3a4:	00 00       	nop
     3a6:	00 00       	nop
     3a8:	00 00       	nop
     3aa:	40 00       	.word	0x0040	; ????
     3ac:	01 01       	movw	r0, r2
     3ae:	00 00       	nop
     3b0:	00 00       	nop
     3b2:	00 80       	ld	r0, Z
     3b4:	01 00       	.word	0x0001	; ????
     3b6:	00 00       	nop
     3b8:	00 00       	nop
     3ba:	00 00       	nop
     3bc:	01 01       	movw	r0, r2
     3be:	00 00       	nop
     3c0:	00 00       	nop
     3c2:	00 00       	nop
     3c4:	00 02       	muls	r16, r16
     3c6:	01 00       	.word	0x0001	; ????
     3c8:	00 00       	nop
     3ca:	00 00       	nop
     3cc:	00 00       	nop
     3ce:	04 01       	movw	r0, r8
     3d0:	00 00       	nop
     3d2:	00 00       	nop
     3d4:	00 00       	nop
     3d6:	00 08       	sbc	r0, r0
     3d8:	01 00       	.word	0x0001	; ????
     3da:	00 00       	nop
     3dc:	00 00       	nop
     3de:	00 00       	nop
     3e0:	10 01       	movw	r2, r0
     3e2:	00 00       	nop
     3e4:	00 00       	nop
     3e6:	00 00       	nop
     3e8:	00 20       	and	r0, r0
     3ea:	01 00       	.word	0x0001	; ????
     3ec:	00 00       	nop
     3ee:	00 00       	nop
     3f0:	00 00       	nop
     3f2:	40 01       	movw	r8, r0
     3f4:	00 00       	nop
     3f6:	00 00       	nop
     3f8:	00 00       	nop
     3fa:	00 80       	ld	r0, Z
	...
     404:	01 00       	.word	0x0001	; ????
     406:	00 00       	nop
     408:	00 00       	nop
     40a:	00 00       	nop
     40c:	00 02       	muls	r16, r16
	...
     416:	04 00       	.word	0x0004	; ????
     418:	00 00       	nop
     41a:	00 00       	nop
     41c:	00 00       	nop
     41e:	00 08       	sbc	r0, r0
	...
     428:	10 00       	.word	0x0010	; ????
     42a:	00 00       	nop
     42c:	00 00       	nop
     42e:	00 00       	nop
     430:	00 20       	and	r0, r0
	...
     43a:	40 00       	.word	0x0040	; ????
     43c:	00 00       	nop
     43e:	00 00       	nop
     440:	00 00       	nop
     442:	00 80       	ld	r0, Z

00000444 <anim4>:
	...
     44c:	01 00 00 00 00 00 00 00 00 02 00 00 00 00 00 00     ................
     45c:	00 00 04 00 00 00 00 00 00 00 00 08 00 00 00 00     ................
     46c:	00 00 00 00 10 00 00 00 00 00 00 00 00 20 00 00     ............. ..
     47c:	00 00 00 00 00 00 40 00 00 00 18 18 00 00 00 80     ......@.........
	...
     494:	01 00 00 00 00 00 00 00 00 02 00 00 00 00 00 00     ................
     4a4:	00 00 04 00 00 00 00 00 00 00 00 08 00 00 00 00     ................
     4b4:	00 00 00 00 10 00 00 00 00 00 00 00 00 20 00 00     ............. ..
     4c4:	00 18 18 00 00 00 40 00 00 3c 24 24 3c 00 00 80     ......@..<$$<...
	...
     4dc:	01 00 00 00 00 00 00 00 00 02 00 00 00 00 00 00     ................
     4ec:	00 00 04 00 00 00 00 00 00 00 00 08 00 00 00 00     ................
     4fc:	00 00 00 00 10 00 00 00 18 18 00 00 00 20 00 00     ............. ..
     50c:	3c 24 24 3c 00 00 40 00 7e 42 42 42 42 7e 00 80     <$$<..@.~BBBB~..
	...
     524:	01 00 00 00 00 00 00 00 00 02 00 00 00 00 00 00     ................
     534:	00 00 04 00 00 00 00 00 00 00 00 08 00 00 00 18     ................
     544:	18 00 00 00 10 00 00 3c 24 24 3c 00 00 20 00 7e     .......<$$<.. .~
     554:	42 42 42 42 7e 00 40 ff 81 81 81 81 81 81 ff 80     BBBB~.@.........
	...
     56c:	01 00 00 00 00 00 00 00 00 02 00 00 00 00 00 00     ................
     57c:	00 00 04 00 00 00 18 18 00 00 00 08 00 00 3c 24     ..............<$
     58c:	24 3c 00 00 10 00 7e 42 42 42 42 7e 00 20 ff 81     $<....~BBBB~. ..
     59c:	81 81 81 81 81 ff 40 00 00 00 00 00 00 00 00 80     ......@.........
	...
     5b4:	01 00 00 00 00 00 00 00 00 02 00 00 00 18 18 00     ................
     5c4:	00 00 04 00 00 3c 24 24 3c 00 00 08 00 7e 42 42     .....<$$<....~BB
     5d4:	42 42 7e 00 10 ff 81 81 81 81 81 81 ff 20 00 00     BB~.......... ..
     5e4:	00 00 00 00 00 00 40 00 00 00 00 00 00 00 00 80     ......@.........
	...
     5fc:	01 00 00 00 18 18 00 00 00 02 00 00 3c 24 24 3c     ............<$$<
     60c:	00 00 04 00 7e 42 42 42 42 7e 00 08 ff 81 81 81     ....~BBBB~......
     61c:	81 81 81 ff 10 00 00 00 00 00 00 00 00 20 00 00     ............. ..
     62c:	00 00 00 00 00 00 40 00 00 00 00 00 00 00 00 80     ......@.........
     63c:	00 00 00 18 18 00 00 00 01 00 00 3c 24 24 3c 00     ...........<$$<.
     64c:	00 02 00 7e 42 42 42 42 7e 00 04 ff 81 81 81 81     ...~BBBB~.......
     65c:	81 81 ff 08 00 00 00 00 00 00 00 00 10 00 00 00     ................
     66c:	00 00 00 00 00 20 00 00 00 00 00 00 00 00 40 00     ..... ........@.
     67c:	00 00 00 00 00 00 00 80 00 00 00 00 00 00 00 00     ................
     68c:	01 00 00 3c 3c 3c 3c 00 00 02 00 7e 42 42 42 42     ...<<<<....~BBBB
     69c:	7e 00 04 ff 81 81 81 81 81 81 ff 08 00 00 00 00     ~...............
     6ac:	00 00 00 00 10 00 00 00 00 00 00 00 00 20 00 00     ............. ..
     6bc:	00 00 00 00 00 00 40 00 00 00 00 00 00 00 00 80     ......@.........
	...
     6d4:	01 00 00 3c 24 24 3c 00 00 02 00 7e 42 5a 5a 42     ...<$$<....~BZZB
     6e4:	7e 00 04 ff 81 81 81 81 81 81 ff 08 00 00 00 00     ~...............
     6f4:	00 00 00 00 10 00 00 00 00 00 00 00 00 20 00 00     ............. ..
     704:	00 00 00 00 00 00 40 00 00 00 00 00 00 00 00 80     ......@.........
	...
     71c:	01 00 00 00 00 00 00 00 00 02 00 7e 7e 66 66 7e     ...........~~ff~
     72c:	7e 00 04 ff 81 81 99 99 81 81 ff 08 00 00 00 00     ~...............
     73c:	00 00 00 00 10 00 00 00 00 00 00 00 00 20 00 00     ............. ..
     74c:	00 00 00 00 00 00 40 00 00 00 00 00 00 00 00 80     ......@.........
	...
     764:	01 00 00 00 00 00 00 00 00 02 00 7e 42 42 42 42     ...........~BBBB
     774:	7e 00 04 ff 81 bd a5 a5 bd 81 ff 08 00 00 00 18     ~...............
     784:	18 00 00 00 10 00 00 00 00 00 00 00 00 20 00 00     ............. ..
     794:	00 00 00 00 00 00 40 00 00 00 00 00 00 00 00 80     ......@.........
	...
     7ac:	01 00 00 00 00 00 00 00 00 02 00 00 00 00 00 00     ................
     7bc:	00 00 04 ff ff c3 c3 c3 c3 ff ff 08 00 00 3c 24     ..............<$
     7cc:	24 3c 00 00 10 00 00 00 18 18 00 00 00 20 00 00     $<........... ..
     7dc:	00 00 00 00 00 00 40 00 00 00 00 00 00 00 00 80     ......@.........
	...
     7f4:	01 00 00 00 00 00 00 00 00 02 00 00 00 00 00 00     ................
     804:	00 00 04 ff 81 81 81 81 81 81 ff 08 00 7e 42 42     .............~BB
     814:	42 42 7e 00 10 00 00 3c 24 24 3c 00 00 20 00 00     BB~....<$$<.. ..
     824:	00 18 18 00 00 00 40 00 00 00 00 00 00 00 00 80     ......@.........
	...
     83c:	01 00 00 00 00 00 00 00 00 02 00 00 00 00 00 00     ................
     84c:	00 00 04 00 00 00 00 00 00 00 00 08 ff 81 81 81     ................
     85c:	81 81 81 ff 10 00 7e 42 42 42 42 7e 00 20 00 00     ......~BBBB~. ..
     86c:	3c 24 24 3c 00 00 40 00 00 00 18 18 00 00 00 80     <$$<..@.........
	...
     884:	01 00 00 00 00 00 00 00 00 02 00 00 00 00 00 00     ................
     894:	00 00 04 00 00 00 00 00 00 00 00 08 ff 81 81 81     ................
     8a4:	81 81 81 ff 10 00 7e 42 42 42 42 7e 00 20 00 00     ......~BBBB~. ..
     8b4:	3c 24 24 3c 00 00 40 00 00 00 18 18 00 00 00 80     <$$<..@.........
	...
     8cc:	01 00 00 00 00 00 00 00 00 02 00 00 00 00 00 00     ................
     8dc:	00 00 04 00 00 00 00 00 00 00 00 08 ff 81 81 81     ................
     8ec:	81 81 81 ff 10 00 7e 42 42 42 42 7e 00 20 00 00     ......~BBBB~. ..
     8fc:	3c 3c 3c 3c 00 00 40 00 00 00 00 00 00 00 00 80     <<<<..@.........
	...
     914:	01 00 00 00 00 00 00 00 00 02 00 00 00 00 00 00     ................
     924:	00 00 04 00 00 00 00 00 00 00 00 08 ff 81 81 81     ................
     934:	81 81 81 ff 10 00 7e 42 5a 5a 42 7e 00 20 00 00     ......~BZZB~. ..
     944:	3c 24 24 3c 00 00 40 00 00 00 00 00 00 00 00 80     <$$<..@.........
	...
     95c:	01 00 00 00 00 00 00 00 00 02 00 00 00 00 00 00     ................
     96c:	00 00 04 00 00 00 00 00 00 00 00 08 ff 81 81 99     ................
     97c:	99 81 81 ff 10 00 7e 7e 66 66 7e 7e 00 20 00 00     ......~~ff~~. ..
     98c:	00 00 00 00 00 00 40 00 00 00 00 00 00 00 00 80     ......@.........
	...
     9a4:	01 00 00 00 00 00 00 00 00 02 00 00 00 00 00 00     ................
     9b4:	00 00 04 00 00 00 18 18 00 00 00 08 ff 81 bd a5     ................
     9c4:	a5 bd 81 ff 10 00 7e 42 42 42 42 7e 00 20 00 00     ......~BBBB~. ..
     9d4:	00 00 00 00 00 00 40 00 00 00 00 00 00 00 00 80     ......@.........
	...
     9ec:	01 00 00 00 00 00 00 00 00 02 00 00 00 18 18 00     ................
     9fc:	00 00 04 00 00 3c 24 24 3c 00 00 08 ff ff c3 c3     .....<$$<.......
     a0c:	c3 c3 ff ff 10 00 00 00 00 00 00 00 00 20 00 00     ............. ..
     a1c:	00 00 00 00 00 00 40 00 00 00 00 00 00 00 00 80     ......@.........
	...
     a34:	01 00 00 00 18 18 00 00 00 02 00 00 3c 24 24 3c     ............<$$<
     a44:	00 00 04 00 7e 42 42 42 42 7e 00 08 ff 81 81 81     ....~BBBB~......
     a54:	81 81 81 ff 10 00 00 00 00 00 00 00 00 20 00 00     ............. ..
     a64:	00 00 00 00 00 00 40 00 00 00 00 00 00 00 00 80     ......@.........
     a74:	00 00 00 18 18 00 00 00 01 00 00 3c 24 24 3c 00     ...........<$$<.
     a84:	00 02 00 7e 42 42 42 42 7e 00 04 ff 81 81 81 81     ...~BBBB~.......
     a94:	81 81 ff 08 00 00 00 00 00 00 00 00 10 00 00 00     ................
     aa4:	00 00 00 00 00 20 00 00 00 00 00 00 00 00 40 00     ..... ........@.
     ab4:	00 00 00 00 00 00 00 80 00 00 00 18 18 00 00 00     ................
     ac4:	01 00 00 3c 24 24 3c 00 00 02 00 7e 42 42 42 42     ...<$$<....~BBBB
     ad4:	7e 00 04 ff 81 81 81 81 81 81 ff 08 00 00 00 00     ~...............
     ae4:	00 00 00 00 10 00 00 00 00 00 00 00 00 20 00 00     ............. ..
     af4:	00 00 00 00 00 00 40 00 00 00 00 00 00 00 00 80     ......@.........
	...
     b0c:	01 00 00 3c 3c 3c 3c 00 00 02 00 7e 42 42 42 42     ...<<<<....~BBBB
     b1c:	7e 00 04 ff 81 81 81 81 81 81 ff 08 00 00 00 00     ~...............
     b2c:	00 00 00 00 10 00 00 00 00 00 00 00 00 20 00 00     ............. ..
     b3c:	00 00 00 00 00 00 40 00 00 00 00 00 00 00 00 80     ......@.........
	...
     b54:	01 00 00 3c 24 24 3c 00 00 02 00 7e 42 5a 5a 42     ...<$$<....~BZZB
     b64:	7e 00 04 ff 81 81 81 81 81 81 ff 08 00 00 00 00     ~...............
     b74:	00 00 00 00 10 00 00 00 00 00 00 00 00 20 00 00     ............. ..
     b84:	00 00 00 00 00 00 40 00 00 00 00 00 00 00 00 80     ......@.........
	...
     b9c:	01 00 00 00 00 00 00 00 00 02 00 7e 7e 66 66 7e     ...........~~ff~
     bac:	7e 00 04 ff 81 81 99 99 81 81 ff 08 00 00 00 00     ~...............
     bbc:	00 00 00 00 10 00 00 00 00 00 00 00 00 20 00 00     ............. ..
     bcc:	00 00 00 00 00 00 40 00 00 00 00 00 00 00 00 80     ......@.........
	...
     be4:	01 00 00 00 00 00 00 00 00 02 00 7e 42 42 42 42     ...........~BBBB
     bf4:	7e 00 04 ff 81 bd a5 a5 bd 81 ff 08 00 00 00 18     ~...............
     c04:	18 00 00 00 10 00 00 00 00 00 00 00 00 20 00 00     ............. ..
     c14:	00 00 00 00 00 00 40 00 00 00 00 00 00 00 00 80     ......@.........
	...
     c2c:	01 00 00 00 00 00 00 00 00 02 00 00 00 00 00 00     ................
     c3c:	00 00 04 ff ff c3 c3 c3 c3 ff ff 08 00 00 3c 24     ..............<$
     c4c:	24 3c 00 00 10 00 00 00 18 18 00 00 00 20 00 00     $<........... ..
     c5c:	00 00 00 00 00 00 40 00 00 00 00 00 00 00 00 80     ......@.........
	...
     c74:	01 00 00 00 00 00 00 00 00 02 00 00 00 00 00 00     ................
     c84:	00 00 04 ff 81 81 81 81 81 81 ff 08 00 7e 42 42     .............~BB
     c94:	42 42 7e 00 10 00 00 3c 24 24 3c 00 00 20 00 00     BB~....<$$<.. ..
     ca4:	00 18 18 00 00 00 40 00 00 00 00 00 00 00 00 80     ......@.........
	...
     cbc:	01 00 00 00 00 00 00 00 00 02 00 00 00 00 00 00     ................
     ccc:	00 00 04 00 00 00 00 00 00 00 00 08 ff 81 81 81     ................
     cdc:	81 81 81 ff 10 00 7e 42 42 42 42 7e 00 20 00 00     ......~BBBB~. ..
     cec:	3c 24 24 3c 00 00 40 00 00 00 18 18 00 00 00 80     <$$<..@.........
	...
     d04:	01 00 00 00 00 00 00 00 00 02 00 00 00 00 00 00     ................
     d14:	00 00 04 00 00 00 00 00 00 00 00 08 ff 81 81 81     ................
     d24:	81 81 81 ff 10 00 7e 42 42 42 42 7e 00 20 00 00     ......~BBBB~. ..
     d34:	3c 24 24 3c 00 00 40 00 00 00 18 18 00 00 00 80     <$$<..@.........
	...
     d4c:	01 00 00 00 00 00 00 00 00 02 00 00 00 00 00 00     ................
     d5c:	00 00 04 00 00 00 00 00 00 00 00 08 ff 81 81 81     ................
     d6c:	81 81 81 ff 10 00 7e 42 42 42 42 7e 00 20 00 00     ......~BBBB~. ..
     d7c:	3c 3c 3c 3c 00 00 40 00 00 00 00 00 00 00 00 80     <<<<..@.........
	...
     d94:	01 00 00 00 00 00 00 00 00 02 00 00 00 00 00 00     ................
     da4:	00 00 04 00 00 00 00 00 00 00 00 08 ff 81 81 81     ................
     db4:	81 81 81 ff 10 00 7e 42 5a 5a 42 7e 00 20 00 00     ......~BZZB~. ..
     dc4:	3c 24 24 3c 00 00 40 00 00 00 00 00 00 00 00 80     <$$<..@.........
	...
     ddc:	01 00 00 00 00 00 00 00 00 02 00 00 00 00 00 00     ................
     dec:	00 00 04 00 00 00 00 00 00 00 00 08 ff 81 81 99     ................
     dfc:	99 81 81 ff 10 00 7e 7e 66 66 7e 7e 00 20 00 00     ......~~ff~~. ..
     e0c:	00 00 00 00 00 00 40 00 00 00 00 00 00 00 00 80     ......@.........
	...
     e24:	01 00 00 00 00 00 00 00 00 02 00 00 00 00 00 00     ................
     e34:	00 00 04 00 00 00 18 18 00 00 00 08 ff 81 bd a5     ................
     e44:	a5 bd 81 ff 10 00 7e 42 42 42 42 7e 00 20 00 00     ......~BBBB~. ..
     e54:	00 00 00 00 00 00 40 00 00 00 00 00 00 00 00 80     ......@.........
	...
     e6c:	01 00 00 00 00 00 00 00 00 02 00 00 00 18 18 00     ................
     e7c:	00 00 04 00 00 3c 24 24 3c 00 00 08 ff ff c3 c3     .....<$$<.......
     e8c:	c3 c3 ff ff 10 00 00 00 00 00 00 00 00 20 00 00     ............. ..
     e9c:	00 00 00 00 00 00 40 00 00 00 00 00 00 00 00 80     ......@.........
	...
     eb4:	01 00 00 00 18 18 00 00 00 02 00 00 3c 24 24 3c     ............<$$<
     ec4:	00 00 04 00 7e 42 42 42 42 7e 00 08 ff 81 81 81     ....~BBBB~......
     ed4:	81 81 81 ff 10 00 00 00 00 00 00 00 00 20 00 00     ............. ..
     ee4:	00 00 00 00 00 00 40 00 00 00 00 00 00 00 00 80     ......@.........
     ef4:	00 00 00 18 18 00 00 00 01 00 00 3c 24 24 3c 00     ...........<$$<.
     f04:	00 02 00 7e 42 42 42 42 7e 00 04 ff 81 81 81 81     ...~BBBB~.......
     f14:	81 81 ff 08 00 00 00 00 00 00 00 00 10 00 00 00     ................
     f24:	00 00 00 00 00 20 00 00 00 00 00 00 00 00 40 00     ..... ........@.
     f34:	00 00 00 00 00 00 00 80 00 00 00 18 18 00 00 00     ................
     f44:	01 00 00 3c 24 24 3c 00 00 02 00 7e 42 42 42 42     ...<$$<....~BBBB
     f54:	7e 00 04 ff 81 81 81 81 81 81 ff 08 00 00 00 00     ~...............
     f64:	00 00 00 00 10 00 00 00 00 00 00 00 00 20 00 00     ............. ..
     f74:	00 00 00 00 00 00 40 00 00 00 00 00 00 00 00 80     ......@.........
	...
     f8c:	01 00 00 3c 3c 3c 3c 00 00 02 00 7e 42 42 42 42     ...<<<<....~BBBB
     f9c:	7e 00 04 ff 81 81 81 81 81 81 ff 08 00 00 00 00     ~...............
     fac:	00 00 00 00 10 00 00 00 00 00 00 00 00 20 00 00     ............. ..
     fbc:	00 00 00 00 00 00 40 00 00 00 00 00 00 00 00 80     ......@.........
	...
     fd4:	01 00 00 3c 24 24 3c 00 00 02 00 7e 42 5a 5a 42     ...<$$<....~BZZB
     fe4:	7e 00 04 ff 81 81 81 81 81 81 ff 08 00 00 00 00     ~...............
     ff4:	00 00 00 00 10 00 00 00 00 00 00 00 00 20 00 00     ............. ..
    1004:	00 00 00 00 00 00 40 00 00 00 00 00 00 00 00 80     ......@.........
	...
    101c:	01 00 00 00 00 00 00 00 00 02 00 7e 7e 66 66 7e     ...........~~ff~
    102c:	7e 00 04 ff 81 81 99 99 81 81 ff 08 00 00 00 00     ~...............
    103c:	00 00 00 00 10 00 00 00 00 00 00 00 00 20 00 00     ............. ..
    104c:	00 00 00 00 00 00 40 00 00 00 00 00 00 00 00 80     ......@.........
	...
    1064:	01 00 00 00 00 00 00 00 00 02 00 7e 42 42 42 42     ...........~BBBB
    1074:	7e 00 04 ff 81 bd a5 a5 bd 81 ff 08 00 00 00 18     ~...............
    1084:	18 00 00 00 10 00 00 00 00 00 00 00 00 20 00 00     ............. ..
    1094:	00 00 00 00 00 00 40 00 00 00 00 00 00 00 00 80     ......@.........
	...
    10ac:	01 00 00 00 00 00 00 00 00 02 00 00 00 00 00 00     ................
    10bc:	00 00 04 ff ff c3 c3 c3 c3 ff ff 08 00 00 3c 24     ..............<$
    10cc:	24 3c 00 00 10 00 00 00 18 18 00 00 00 20 00 00     $<........... ..
    10dc:	00 00 00 00 00 00 40 00 00 00 00 00 00 00 00 80     ......@.........
	...
    10f4:	01 00 00 00 00 00 00 00 00 02 00 00 00 00 00 00     ................
    1104:	00 00 04 ff 81 81 81 81 81 81 ff 08 00 7e 42 42     .............~BB
    1114:	42 42 7e 00 10 00 00 3c 24 24 3c 00 00 20 00 00     BB~....<$$<.. ..
    1124:	00 18 18 00 00 00 40 00 00 00 00 00 00 00 00 80     ......@.........
	...
    113c:	01 00 00 00 00 00 00 00 00 02 00 00 00 00 00 00     ................
    114c:	00 00 04 00 00 00 00 00 00 00 00 08 ff 81 81 81     ................
    115c:	81 81 81 ff 10 00 7e 42 42 42 42 7e 00 20 00 00     ......~BBBB~. ..
    116c:	3c 24 24 3c 00 00 40 00 00 00 18 18 00 00 00 80     <$$<..@.........
	...
    1184:	01 00 00 00 00 00 00 00 00 02 00 00 00 00 00 00     ................
    1194:	00 00 04 00 00 00 00 00 00 00 00 08 00 00 00 00     ................
    11a4:	00 00 00 00 10 ff 81 81 81 81 81 81 ff 20 00 7e     ............. .~
    11b4:	42 42 42 42 7e 00 40 00 00 3c 24 24 3c 00 00 80     BBBB~.@..<$$<...
	...
    11cc:	01 00 00 00 00 00 00 00 00 02 00 00 00 00 00 00     ................
    11dc:	00 00 04 00 00 00 00 00 00 00 00 08 00 00 00 00     ................
    11ec:	00 00 00 00 10 00 00 00 00 00 00 00 00 20 ff 81     ............. ..
    11fc:	81 81 81 81 81 ff 40 00 7e 42 42 42 42 7e 00 80     ......@.~BBBB~..
	...
    1214:	01 00 00 00 00 00 00 00 00 02 00 00 00 00 00 00     ................
    1224:	00 00 04 00 00 00 00 00 00 00 00 08 00 00 00 00     ................
    1234:	00 00 00 00 10 00 00 00 00 00 00 00 00 20 00 00     ............. ..
    1244:	00 00 00 00 00 00 40 ff 81 81 81 81 81 81 ff 80     ......@.........
	...
    125c:	01 00 00 00 00 00 00 00 00 02 00 00 00 00 00 00     ................
    126c:	00 00 04 00 00 00 00 00 00 00 00 08 00 00 00 00     ................
    127c:	00 00 00 00 10 00 00 00 00 00 00 00 00 20 00 00     ............. ..
    128c:	00 00 00 00 00 00 40 00 00 00 00 00 00 00 00 80     ......@.........

0000129c <anim3>:
    129c:	ff 00 00 00 00 00 00 00 01 00 00 00 00 00 00 00     ................
    12ac:	00 02 00 00 00 00 00 00 00 00 04 00 00 00 00 00     ................
    12bc:	00 00 00 08 00 00 00 00 00 00 00 00 10 00 00 00     ................
    12cc:	00 00 00 00 00 20 00 00 00 00 00 00 00 00 40 00     ..... ........@.
    12dc:	00 00 00 00 00 00 00 80 00 ff 00 00 00 00 00 00     ................
    12ec:	01 ff 00 00 00 00 00 00 00 02 00 00 00 00 00 00     ................
    12fc:	00 00 04 00 00 00 00 00 00 00 00 08 00 00 00 00     ................
    130c:	00 00 00 00 10 00 00 00 00 00 00 00 00 20 00 00     ............. ..
    131c:	00 00 00 00 00 00 40 00 00 00 00 00 00 00 00 80     ......@.........
    132c:	00 00 ff 00 00 00 00 00 01 00 ff 00 00 00 00 00     ................
    133c:	00 02 ff 00 00 00 00 00 00 00 04 00 00 00 00 00     ................
    134c:	00 00 00 08 00 00 00 00 00 00 00 00 10 00 00 00     ................
    135c:	00 00 00 00 00 20 00 00 00 00 00 00 00 00 40 00     ..... ........@.
    136c:	00 00 00 00 00 00 00 80 00 00 00 ff 00 00 00 00     ................
    137c:	01 00 00 ff 00 00 00 00 00 02 00 ff 00 00 00 00     ................
    138c:	00 00 04 ff 00 00 00 00 00 00 00 08 00 00 00 00     ................
    139c:	00 00 00 00 10 00 00 00 00 00 00 00 00 20 00 00     ............. ..
    13ac:	00 00 00 00 00 00 40 00 00 00 00 00 00 00 00 80     ......@.........
    13bc:	00 00 00 00 ff 00 00 00 01 00 00 00 ff 00 00 00     ................
    13cc:	00 02 00 00 ff 00 00 00 00 00 04 00 ff 00 00 00     ................
    13dc:	00 00 00 08 ff 00 00 00 00 00 00 00 10 00 00 00     ................
    13ec:	00 00 00 00 00 20 00 00 00 00 00 00 00 00 40 00     ..... ........@.
    13fc:	00 00 00 00 00 00 00 80 00 00 00 00 00 ff 00 00     ................
    140c:	01 00 00 00 00 ff 00 00 00 02 00 00 00 ff 00 00     ................
    141c:	00 00 04 00 00 ff 00 00 00 00 00 08 00 ff 00 00     ................
    142c:	00 00 00 00 10 ff 00 00 00 00 00 00 00 20 00 00     ............. ..
    143c:	00 00 00 00 00 00 40 00 00 00 00 00 00 00 00 80     ......@.........
    144c:	00 00 00 00 00 00 ff 00 01 00 00 00 00 00 ff 00     ................
    145c:	00 02 00 00 00 00 ff 00 00 00 04 00 00 00 ff 00     ................
    146c:	00 00 00 08 00 00 ff 00 00 00 00 00 10 00 ff 00     ................
    147c:	00 00 00 00 00 20 ff 00 00 00 00 00 00 00 40 00     ..... ........@.
    148c:	00 00 00 00 00 00 00 80 00 00 00 00 00 00 00 ff     ................
    149c:	01 00 00 00 00 00 00 ff 00 02 00 00 00 00 00 ff     ................
    14ac:	00 00 04 00 00 00 00 ff 00 00 00 08 00 00 00 ff     ................
    14bc:	00 00 00 00 10 00 00 ff 00 00 00 00 00 20 00 ff     ............. ..
    14cc:	00 00 00 00 00 00 40 ff 00 00 00 00 00 00 00 80     ......@.........
	...
    14e4:	01 00 00 00 00 00 00 ff ff 02 00 00 00 00 00 ff     ................
    14f4:	00 00 04 00 00 00 00 ff 00 00 00 08 00 00 00 ff     ................
    1504:	00 00 00 00 10 00 00 ff 00 00 00 00 00 20 ff ff     ............. ..
    1514:	00 00 00 00 00 00 40 00 00 00 00 00 00 00 00 80     ......@.........
	...
    152c:	01 00 00 00 00 00 00 ff 00 02 00 00 00 00 00 ff     ................
    153c:	00 ff 04 00 00 00 00 ff 00 00 00 08 00 00 00 ff     ................
    154c:	00 00 00 00 10 ff 00 ff 00 00 00 00 00 20 00 ff     ............. ..
    155c:	00 00 00 00 00 00 40 00 00 00 00 00 00 00 00 80     ......@.........
	...
    1574:	01 00 00 00 00 00 00 00 00 02 00 00 00 00 00 ff     ................
    1584:	ff 00 04 00 00 00 00 ff 00 00 ff 08 ff 00 00 ff     ................
    1594:	00 00 00 00 10 00 ff ff 00 00 00 00 00 20 00 00     ............. ..
    15a4:	00 00 00 00 00 00 40 00 00 00 00 00 00 00 00 80     ......@.........
	...
    15bc:	01 00 00 00 00 00 00 00 00 02 00 00 00 00 00 ff     ................
    15cc:	00 00 04 ff 00 00 00 ff 00 ff 00 08 00 ff 00 ff     ................
    15dc:	00 00 00 ff 10 00 00 ff 00 00 00 00 00 20 00 00     ............. ..
    15ec:	00 00 00 00 00 00 40 00 00 00 00 00 00 00 00 80     ......@.........
	...
    1604:	01 00 00 00 00 00 00 00 00 02 ff 00 00 00 00 00     ................
    1614:	00 00 04 00 ff 00 00 ff ff 00 00 08 00 00 ff ff     ................
    1624:	00 00 ff 00 10 00 00 00 00 00 00 00 ff 20 00 00     ............. ..
    1634:	00 00 00 00 00 00 40 00 00 00 00 00 00 00 00 80     ......@.........
	...
    164c:	01 ff 00 00 00 00 00 00 00 02 00 ff 00 00 00 00     ................
    165c:	00 00 04 00 00 ff 00 ff 00 00 00 08 00 00 00 ff     ................
    166c:	00 ff 00 00 10 00 00 00 00 00 00 ff 00 20 00 00     ............. ..
    167c:	00 00 00 00 00 ff 40 00 00 00 00 00 00 00 00 80     ......@.........
    168c:	ff 00 00 00 00 00 00 00 01 00 ff 00 00 00 00 00     ................
    169c:	00 02 00 00 ff 00 00 00 00 00 04 00 00 00 ff 00     ................
    16ac:	00 00 00 08 00 00 00 00 ff 00 00 00 10 00 00 00     ................
    16bc:	00 00 ff 00 ff 20 00 00 00 00 00 00 ff 00 40 00     ..... ........@.
    16cc:	00 00 00 00 00 00 00 80 00 00 00 00 00 00 00 00     ................
    16dc:	01 ff 00 00 00 00 00 00 00 02 00 ff 00 00 00 00     ................
    16ec:	00 00 04 00 00 ff 00 00 00 00 00 08 00 00 00 ff     ................
    16fc:	00 00 00 ff 10 00 00 00 00 ff 00 ff 00 20 00 00     ............. ..
    170c:	00 00 00 ff 00 00 40 00 00 00 00 00 00 00 00 80     ......@.........
	...
    1724:	01 00 00 00 00 00 00 00 00 02 ff 00 00 00 00 00     ................
    1734:	00 00 04 00 ff 00 00 00 00 00 ff 08 00 00 ff 00     ................
    1744:	00 00 ff 00 10 00 00 00 ff 00 ff 00 00 20 00 00     ............. ..
    1754:	00 00 ff 00 00 00 40 00 00 00 00 00 00 00 00 80     ......@.........
	...
    176c:	01 00 00 00 00 00 00 00 00 02 00 00 00 00 00 00     ................
    177c:	00 ff 04 ff 00 00 00 00 00 ff 00 08 00 ff 00 00     ................
    178c:	00 ff 00 00 10 00 00 ff 00 ff 00 00 00 20 00 00     ............. ..
    179c:	00 ff 00 00 00 00 40 00 00 00 00 00 00 00 00 80     ......@.........
	...
    17b4:	01 00 00 00 00 00 00 00 ff 02 00 00 00 00 00 00     ................
    17c4:	ff 00 04 00 00 00 00 00 ff 00 00 08 ff 00 00 00     ................
    17d4:	ff 00 00 00 10 00 ff 00 ff 00 00 00 00 20 00 00     ............. ..
    17e4:	ff 00 00 00 00 00 40 00 00 00 00 00 00 00 00 80     ......@.........
    17f4:	00 00 00 00 00 00 00 ff 01 00 00 00 00 00 00 ff     ................
    1804:	00 02 00 00 00 00 00 ff 00 00 04 00 00 00 00 ff     ................
    1814:	00 00 00 08 00 00 00 ff 00 00 00 00 10 ff 00 ff     ................
    1824:	00 00 00 00 00 20 00 ff 00 00 00 00 00 00 40 00     ..... ........@.
    1834:	00 00 00 00 00 00 00 80 00 00 00 00 00 00 00 ff     ................
    1844:	01 00 00 00 00 00 00 ff 00 02 00 00 00 00 00 ff     ................
    1854:	00 00 04 00 00 00 00 ff 00 00 00 08 00 00 00 ff     ................
    1864:	00 00 00 00 10 00 00 ff 00 00 00 00 00 20 00 ff     ............. ..
    1874:	00 00 00 00 00 00 40 ff 00 00 00 00 00 00 00 80     ......@.........
	...
    188c:	01 00 00 00 00 00 00 ff ff 02 00 00 00 00 00 ff     ................
    189c:	00 00 04 00 00 00 00 ff 00 00 00 08 00 00 00 ff     ................
    18ac:	00 00 00 00 10 00 00 ff 00 00 00 00 00 20 ff ff     ............. ..
    18bc:	00 00 00 00 00 00 40 00 00 00 00 00 00 00 00 80     ......@.........
	...
    18d4:	01 00 00 00 00 00 00 ff 00 02 00 00 00 00 00 ff     ................
    18e4:	00 ff 04 00 00 00 00 ff 00 00 00 08 00 00 00 ff     ................
    18f4:	00 00 00 00 10 ff 00 ff 00 00 00 00 00 20 00 ff     ............. ..
    1904:	00 00 00 00 00 00 40 00 00 00 00 00 00 00 00 80     ......@.........
	...
    191c:	01 00 00 00 00 00 00 00 00 02 00 00 00 00 00 ff     ................
    192c:	ff 00 04 00 00 00 00 ff 00 00 ff 08 ff 00 00 ff     ................
    193c:	00 00 00 00 10 00 ff ff 00 00 00 00 00 20 00 00     ............. ..
    194c:	00 00 00 00 00 00 40 00 00 00 00 00 00 00 00 80     ......@.........
	...
    1964:	01 00 00 00 00 00 00 00 00 02 00 00 00 00 00 ff     ................
    1974:	00 00 04 ff 00 00 00 ff 00 ff 00 08 00 ff 00 ff     ................
    1984:	00 00 00 ff 10 00 00 ff 00 00 00 00 00 20 00 00     ............. ..
    1994:	00 00 00 00 00 00 40 00 00 00 00 00 00 00 00 80     ......@.........
	...
    19ac:	01 00 00 00 00 00 00 00 00 02 ff 00 00 00 00 00     ................
    19bc:	00 00 04 00 ff 00 00 ff ff 00 00 08 00 00 ff ff     ................
    19cc:	00 00 ff 00 10 00 00 00 00 00 00 00 ff 20 00 00     ............. ..
    19dc:	00 00 00 00 00 00 40 00 00 00 00 00 00 00 00 80     ......@.........
	...
    19f4:	01 ff 00 00 00 00 00 00 00 02 00 ff 00 00 00 00     ................
    1a04:	00 00 04 00 00 ff 00 ff 00 00 00 08 00 00 00 ff     ................
    1a14:	00 ff 00 00 10 00 00 00 00 00 00 ff 00 20 00 00     ............. ..
    1a24:	00 00 00 00 00 ff 40 00 00 00 00 00 00 00 00 80     ......@.........
    1a34:	ff 00 00 00 00 00 00 00 01 00 ff 00 00 00 00 00     ................
    1a44:	00 02 00 00 ff 00 00 00 00 00 04 00 00 00 ff 00     ................
    1a54:	00 00 00 08 00 00 00 00 ff 00 00 00 10 00 00 00     ................
    1a64:	00 00 ff 00 ff 20 00 00 00 00 00 00 ff 00 40 00     ..... ........@.
    1a74:	00 00 00 00 00 00 00 80 00 00 00 00 00 00 00 00     ................
    1a84:	01 ff 00 00 00 00 00 00 00 02 00 ff 00 00 00 00     ................
    1a94:	00 00 04 00 00 ff 00 00 00 00 00 08 00 00 00 ff     ................
    1aa4:	00 00 00 ff 10 00 00 00 00 ff 00 ff 00 20 00 00     ............. ..
    1ab4:	00 00 00 ff 00 00 40 00 00 00 00 00 00 00 00 80     ......@.........
	...
    1acc:	01 00 00 00 00 00 00 00 00 02 ff 00 00 00 00 00     ................
    1adc:	00 00 04 00 ff 00 00 00 00 00 ff 08 00 00 ff 00     ................
    1aec:	00 00 ff 00 10 00 00 00 ff 00 ff 00 00 20 00 00     ............. ..
    1afc:	00 00 ff 00 00 00 40 00 00 00 00 00 00 00 00 80     ......@.........
	...
    1b14:	01 00 00 00 00 00 00 00 00 02 00 00 00 00 00 00     ................
    1b24:	00 ff 04 ff 00 00 00 00 00 ff 00 08 00 ff 00 00     ................
    1b34:	00 ff 00 00 10 00 00 ff 00 ff 00 00 00 20 00 00     ............. ..
    1b44:	00 ff 00 00 00 00 40 00 00 00 00 00 00 00 00 80     ......@.........
	...
    1b5c:	01 00 00 00 00 00 00 00 ff 02 00 00 00 00 00 00     ................
    1b6c:	ff 00 04 00 00 00 00 00 ff 00 00 08 ff 00 00 00     ................
    1b7c:	ff 00 00 00 10 00 ff 00 ff 00 00 00 00 20 00 00     ............. ..
    1b8c:	ff 00 00 00 00 00 40 00 00 00 00 00 00 00 00 80     ......@.........
    1b9c:	00 00 00 00 00 00 00 ff 01 00 00 00 00 00 00 ff     ................
    1bac:	00 02 00 00 00 00 00 ff 00 00 04 00 00 00 00 ff     ................
    1bbc:	00 00 00 08 00 00 00 ff 00 00 00 00 10 ff 00 ff     ................
    1bcc:	00 00 00 00 00 20 00 ff 00 00 00 00 00 00 40 00     ..... ........@.
    1bdc:	00 00 00 00 00 00 00 80 00 00 00 00 00 00 00 ff     ................
    1bec:	01 00 00 00 00 00 00 ff 00 02 00 00 00 00 00 ff     ................
    1bfc:	00 00 04 00 00 00 00 ff 00 00 00 08 00 00 00 ff     ................
    1c0c:	00 00 00 00 10 00 00 ff 00 00 00 00 00 20 00 ff     ............. ..
    1c1c:	00 00 00 00 00 00 40 ff 00 00 00 00 00 00 00 80     ......@.........
	...
    1c34:	01 00 00 00 00 00 00 ff ff 02 00 00 00 00 00 ff     ................
    1c44:	00 00 04 00 00 00 00 ff 00 00 00 08 00 00 00 ff     ................
    1c54:	00 00 00 00 10 00 00 ff 00 00 00 00 00 20 ff ff     ............. ..
    1c64:	00 00 00 00 00 00 40 00 00 00 00 00 00 00 00 80     ......@.........
	...
    1c7c:	01 00 00 00 00 00 00 ff 00 02 00 00 00 00 00 ff     ................
    1c8c:	00 ff 04 00 00 00 00 ff 00 00 00 08 00 00 00 ff     ................
    1c9c:	00 00 00 00 10 ff 00 ff 00 00 00 00 00 20 00 ff     ............. ..
    1cac:	00 00 00 00 00 00 40 00 00 00 00 00 00 00 00 80     ......@.........
	...
    1cc4:	01 00 00 00 00 00 00 00 00 02 00 00 00 00 00 ff     ................
    1cd4:	ff 00 04 00 00 00 00 ff 00 00 ff 08 ff 00 00 ff     ................
    1ce4:	00 00 00 00 10 00 ff ff 00 00 00 00 00 20 00 00     ............. ..
    1cf4:	00 00 00 00 00 00 40 00 00 00 00 00 00 00 00 80     ......@.........
	...
    1d0c:	01 00 00 00 00 00 00 00 00 02 00 00 00 00 00 ff     ................
    1d1c:	00 00 04 ff 00 00 00 ff 00 ff 00 08 00 ff 00 ff     ................
    1d2c:	00 00 00 ff 10 00 00 ff 00 00 00 00 00 20 00 00     ............. ..
    1d3c:	00 00 00 00 00 00 40 00 00 00 00 00 00 00 00 80     ......@.........
	...
    1d54:	01 00 00 00 00 00 00 00 00 02 ff 00 00 00 00 00     ................
    1d64:	00 00 04 00 ff 00 00 ff ff 00 00 08 00 00 ff ff     ................
    1d74:	00 00 ff 00 10 00 00 00 00 00 00 00 ff 20 00 00     ............. ..
    1d84:	00 00 00 00 00 00 40 00 00 00 00 00 00 00 00 80     ......@.........
	...
    1d9c:	01 ff 00 00 00 00 00 00 00 02 00 ff 00 00 00 00     ................
    1dac:	00 00 04 00 00 ff 00 ff 00 00 00 08 00 00 00 ff     ................
    1dbc:	00 ff 00 00 10 00 00 00 00 00 00 ff 00 20 00 00     ............. ..
    1dcc:	00 00 00 00 00 ff 40 00 00 00 00 00 00 00 00 80     ......@.........
    1ddc:	ff 00 00 00 00 00 00 00 01 00 ff 00 00 00 00 00     ................
    1dec:	00 02 00 00 ff 00 00 00 00 00 04 00 00 00 ff 00     ................
    1dfc:	00 00 00 08 00 00 00 00 ff 00 00 00 10 00 00 00     ................
    1e0c:	00 00 ff 00 ff 20 00 00 00 00 00 00 ff 00 40 00     ..... ........@.
    1e1c:	00 00 00 00 00 00 00 80 00 00 00 00 00 00 00 00     ................
    1e2c:	01 ff 00 00 00 00 00 00 00 02 00 ff 00 00 00 00     ................
    1e3c:	00 00 04 00 00 ff 00 00 00 00 00 08 00 00 00 ff     ................
    1e4c:	00 00 00 ff 10 00 00 00 00 ff 00 ff 00 20 00 00     ............. ..
    1e5c:	00 00 00 ff 00 00 40 00 00 00 00 00 00 00 00 80     ......@.........
	...
    1e74:	01 00 00 00 00 00 00 00 00 02 ff 00 00 00 00 00     ................
    1e84:	00 00 04 00 ff 00 00 00 00 00 ff 08 00 00 ff 00     ................
    1e94:	00 00 ff 00 10 00 00 00 ff 00 ff 00 00 20 00 00     ............. ..
    1ea4:	00 00 ff 00 00 00 40 00 00 00 00 00 00 00 00 80     ......@.........
	...
    1ebc:	01 00 00 00 00 00 00 00 00 02 00 00 00 00 00 00     ................
    1ecc:	00 ff 04 ff 00 00 00 00 00 ff 00 08 00 ff 00 00     ................
    1edc:	00 ff 00 00 10 00 00 ff 00 ff 00 00 00 20 00 00     ............. ..
    1eec:	00 ff 00 00 00 00 40 00 00 00 00 00 00 00 00 80     ......@.........
	...
    1f04:	01 00 00 00 00 00 00 00 ff 02 00 00 00 00 00 00     ................
    1f14:	ff 00 04 00 00 00 00 00 ff 00 00 08 ff 00 00 00     ................
    1f24:	ff 00 00 00 10 00 ff 00 ff 00 00 00 00 20 00 00     ............. ..
    1f34:	ff 00 00 00 00 00 40 00 00 00 00 00 00 00 00 80     ......@.........
    1f44:	00 00 00 00 00 00 00 ff 01 00 00 00 00 00 00 ff     ................
    1f54:	00 02 00 00 00 00 00 ff 00 00 04 00 00 00 00 ff     ................
    1f64:	00 00 00 08 00 00 00 ff 00 00 00 00 10 ff 00 ff     ................
    1f74:	00 00 00 00 00 20 00 ff 00 00 00 00 00 00 40 00     ..... ........@.
    1f84:	00 00 00 00 00 00 00 80 00 00 00 00 00 00 00 ff     ................
    1f94:	01 00 00 00 00 00 00 ff 00 02 00 00 00 00 00 ff     ................
    1fa4:	00 00 04 00 00 00 00 ff 00 00 00 08 00 00 00 ff     ................
    1fb4:	00 00 00 00 10 00 00 ff 00 00 00 00 00 20 00 ff     ............. ..
    1fc4:	00 00 00 00 00 00 40 ff 00 00 00 00 00 00 00 80     ......@.........
	...
    1fdc:	01 00 00 00 00 00 00 00 ff 02 00 00 00 00 00 00     ................
    1fec:	ff 00 04 00 00 00 00 00 ff 00 00 08 00 00 00 00     ................
    1ffc:	ff 00 00 00 10 00 00 00 ff 00 00 00 00 20 00 00     ............. ..
    200c:	ff 00 00 00 00 00 40 00 ff 00 00 00 00 00 00 80     ......@.........
	...
    2024:	01 00 00 00 00 00 00 00 00 02 00 00 00 00 00 00     ................
    2034:	00 ff 04 00 00 00 00 00 00 ff 00 08 00 00 00 00     ................
    2044:	00 ff 00 00 10 00 00 00 00 ff 00 00 00 20 00 00     ............. ..
    2054:	00 ff 00 00 00 00 40 00 00 ff 00 00 00 00 00 80     ......@.........
	...
    206c:	01 00 00 00 00 00 00 00 00 02 00 00 00 00 00 00     ................
    207c:	00 00 04 00 00 00 00 00 00 00 ff 08 00 00 00 00     ................
    208c:	00 00 ff 00 10 00 00 00 00 00 ff 00 00 20 00 00     ............. ..
    209c:	00 00 ff 00 00 00 40 00 00 00 ff 00 00 00 00 80     ......@.........
	...
    20b4:	01 00 00 00 00 00 00 00 00 02 00 00 00 00 00 00     ................
    20c4:	00 00 04 00 00 00 00 00 00 00 00 08 00 00 00 00     ................
    20d4:	00 00 00 ff 10 00 00 00 00 00 00 ff 00 20 00 00     ............. ..
    20e4:	00 00 00 ff 00 00 40 00 00 00 00 ff 00 00 00 80     ......@.........
	...
    20fc:	01 00 00 00 00 00 00 00 00 02 00 00 00 00 00 00     ................
    210c:	00 00 04 00 00 00 00 00 00 00 00 08 00 00 00 00     ................
    211c:	00 00 00 00 10 00 00 00 00 00 00 00 ff 20 00 00     ............. ..
    212c:	00 00 00 00 ff 00 40 00 00 00 00 00 ff 00 00 80     ......@.........
	...
    2144:	01 00 00 00 00 00 00 00 00 02 00 00 00 00 00 00     ................
    2154:	00 00 04 00 00 00 00 00 00 00 00 08 00 00 00 00     ................
    2164:	00 00 00 00 10 00 00 00 00 00 00 00 00 20 00 00     ............. ..
    2174:	00 00 00 00 00 ff 40 00 00 00 00 00 00 ff 00 80     ......@.........
	...
    218c:	01 00 00 00 00 00 00 00 00 02 00 00 00 00 00 00     ................
    219c:	00 00 04 00 00 00 00 00 00 00 00 08 00 00 00 00     ................
    21ac:	00 00 00 00 10 00 00 00 00 00 00 00 00 20 00 00     ............. ..
    21bc:	00 00 00 00 00 00 40 00 00 00 00 00 00 00 ff 80     ......@.........
	...
    21d4:	01 00 00 00 00 00 00 00 00 02 00 00 00 00 00 00     ................
    21e4:	00 00 04 00 00 00 00 00 00 00 00 08 00 00 00 00     ................
    21f4:	00 00 00 00 10 00 00 00 00 00 00 00 00 20 00 00     ............. ..
    2204:	00 00 00 00 00 00 40 00 00 00 00 00 00 00 00 80     ......@.........

00002214 <anim2>:
	...
    221c:	01 00 00 00 00 00 00 00 00 02 00 00 00 00 00 00     ................
    222c:	00 00 04 00 00 00 00 00 00 00 00 08 00 00 00 00     ................
    223c:	00 00 00 00 10 00 00 00 00 00 00 00 00 20 00 00     ............. ..
    224c:	00 00 00 00 00 00 40 00 00 00 00 00 00 00 ff 80     ......@.........
	...
    2264:	01 00 00 00 00 00 00 00 00 02 00 00 00 00 00 00     ................
    2274:	00 00 04 00 00 00 00 00 00 00 00 08 00 00 00 00     ................
    2284:	00 00 00 00 10 00 00 00 00 00 00 00 00 20 00 00     ............. ..
    2294:	00 00 00 00 00 ff 40 00 00 00 00 00 00 00 ff 80     ......@.........
	...
    22ac:	01 00 00 00 00 00 00 00 00 02 00 00 00 00 00 00     ................
    22bc:	00 00 04 00 00 00 00 00 00 00 00 08 00 00 00 00     ................
    22cc:	00 00 00 00 10 00 00 00 00 00 00 00 ff 20 00 00     ............. ..
    22dc:	00 00 00 00 00 ff 40 00 00 00 00 00 00 00 ff 80     ......@.........
	...
    22f4:	01 00 00 00 00 00 00 00 00 02 00 00 00 00 00 00     ................
    2304:	00 00 04 00 00 00 00 00 00 00 00 08 00 00 00 00     ................
    2314:	00 00 00 ff 10 00 00 00 00 00 00 00 ff 20 00 00     ............. ..
    2324:	00 00 00 00 00 ff 40 00 00 00 00 00 00 00 ff 80     ......@.........
	...
    233c:	01 00 00 00 00 00 00 00 00 02 00 00 00 00 00 00     ................
    234c:	00 00 04 00 00 00 00 00 00 00 ff 08 00 00 00 00     ................
    235c:	00 00 00 ff 10 00 00 00 00 00 00 00 ff 20 00 00     ............. ..
    236c:	00 00 00 00 00 ff 40 00 00 00 00 00 00 00 ff 80     ......@.........
	...
    2384:	01 00 00 00 00 00 00 00 00 02 00 00 00 00 00 00     ................
    2394:	00 ff 04 00 00 00 00 00 00 00 ff 08 00 00 00 00     ................
    23a4:	00 00 00 ff 10 00 00 00 00 00 00 00 ff 20 00 00     ............. ..
    23b4:	00 00 00 00 00 ff 40 00 00 00 00 00 00 00 ff 80     ......@.........
	...
    23cc:	01 00 00 00 00 00 00 00 00 02 00 00 00 00 00 00     ................
    23dc:	ff ff 04 00 00 00 00 00 00 00 ff 08 00 00 00 00     ................
    23ec:	00 00 00 ff 10 00 00 00 00 00 00 00 ff 20 00 00     ............. ..
    23fc:	00 00 00 00 00 ff 40 00 00 00 00 00 00 00 ff 80     ......@.........
	...
    2414:	01 00 00 00 00 00 00 00 00 02 00 00 00 00 00 00     ................
    2424:	ff ff 04 00 00 00 00 00 ff 00 ff 08 00 00 00 00     ................
    2434:	00 00 00 ff 10 00 00 00 00 00 00 00 ff 20 00 00     ............. ..
    2444:	00 00 00 00 00 ff 40 00 00 00 00 00 00 00 ff 80     ......@.........
	...
    245c:	01 00 00 00 00 00 00 00 00 02 00 00 00 00 00 00     ................
    246c:	ff ff 04 00 00 00 00 00 ff 00 ff 08 00 00 00 00     ................
    247c:	ff 00 00 ff 10 00 00 00 00 00 00 00 ff 20 00 00     ............. ..
    248c:	00 00 00 00 00 ff 40 00 00 00 00 00 00 00 ff 80     ......@.........
	...
    24a4:	01 00 00 00 00 00 00 00 00 02 00 00 00 00 00 00     ................
    24b4:	ff ff 04 00 00 00 00 00 ff 00 ff 08 00 00 00 00     ................
    24c4:	ff 00 00 ff 10 00 00 00 ff 00 00 00 ff 20 00 00     ............. ..
    24d4:	00 00 00 00 00 ff 40 00 00 00 00 00 00 00 00 80     ......@.........
	...
    24ec:	01 00 00 00 00 00 00 00 00 02 00 00 00 00 00 00     ................
    24fc:	ff ff 04 00 00 00 00 00 ff 00 ff 08 00 00 00 00     ................
    250c:	ff 00 00 ff 10 00 00 00 ff 00 00 00 ff 20 00 00     ............. ..
    251c:	ff 00 00 00 00 00 40 00 00 00 00 00 00 00 00 80     ......@.........
	...
    2534:	01 00 00 00 00 00 00 00 00 02 00 00 00 00 00 00     ................
    2544:	ff ff 04 00 00 00 00 00 ff 00 ff 08 00 00 00 00     ................
    2554:	ff 00 00 ff 10 00 ff 00 ff 00 00 00 00 20 00 00     ............. ..
    2564:	ff 00 00 00 00 00 40 00 00 00 00 00 00 00 00 80     ......@.........
	...
    257c:	01 00 00 00 00 00 00 00 00 02 00 00 00 00 00 00     ................
    258c:	ff ff 04 00 00 00 00 00 ff 00 ff 08 ff 00 00 00     ................
    259c:	ff 00 00 00 10 00 ff 00 ff 00 00 00 00 20 00 00     ............. ..
    25ac:	ff 00 00 00 00 00 40 00 00 00 00 00 00 00 00 80     ......@.........
	...
    25c4:	01 00 00 00 00 00 00 ff 00 02 00 00 00 00 00 ff     ................
    25d4:	00 ff 04 00 00 00 00 ff 00 00 00 08 00 00 00 ff     ................
    25e4:	00 00 00 00 10 ff 00 ff 00 00 00 00 00 20 00 ff     ............. ..
    25f4:	00 00 00 00 00 00 40 00 00 00 00 00 00 00 00 80     ......@.........
	...
    260c:	01 00 00 00 00 00 ff 00 00 02 00 00 00 00 ff 00     ................
    261c:	ff 00 04 00 00 00 ff 00 00 00 ff 08 00 00 ff 00     ................
    262c:	00 00 00 00 10 00 ff 00 00 00 00 00 00 20 ff 00     ............. ..
    263c:	00 00 00 00 00 00 40 00 00 00 00 00 00 00 00 80     ......@.........
	...
    2654:	01 00 00 00 00 ff 00 00 00 02 00 00 00 ff 00 ff     ................
    2664:	00 00 04 00 00 ff 00 00 00 ff 00 08 00 ff 00 00     ................
    2674:	00 00 00 ff 10 ff 00 00 00 00 00 00 00 20 00 00     ............. ..
    2684:	00 00 00 00 00 00 40 00 00 00 00 00 00 00 00 80     ......@.........
	...
    269c:	01 00 00 00 ff 00 00 00 00 02 00 00 ff 00 ff 00     ................
    26ac:	00 00 04 00 ff 00 00 00 ff 00 00 08 ff 00 00 00     ................
    26bc:	00 00 ff 00 10 00 00 00 00 00 00 00 ff 20 00 00     ............. ..
    26cc:	00 00 00 00 00 00 40 00 00 00 00 00 00 00 00 80     ......@.........
	...
    26e4:	01 00 00 ff 00 00 00 00 00 02 00 ff 00 ff 00 00     ................
    26f4:	00 00 04 ff 00 00 00 ff 00 00 00 08 00 00 00 00     ................
    2704:	00 ff 00 00 10 00 00 00 00 00 00 ff 00 20 00 00     ............. ..
    2714:	00 00 00 00 00 ff 40 00 00 00 00 00 00 00 00 80     ......@.........
	...
    272c:	01 00 ff 00 00 00 00 00 00 02 ff 00 ff 00 00 00     ................
    273c:	00 00 04 00 00 00 ff 00 00 00 00 08 00 00 00 00     ................
    274c:	ff 00 00 00 10 00 00 00 00 00 ff 00 ff 20 00 00     ............. ..
    275c:	00 00 00 00 ff 00 40 00 00 00 00 00 00 00 00 80     ......@.........

0000276c <anim1>:
	...
    2774:	01 00 00 00 00 00 00 00 00 02 00 00 00 00 00 00     ................
    2784:	00 00 04 00 00 00 18 18 00 00 00 08 00 00 00 18     ................
    2794:	18 00 00 00 10 00 00 00 00 00 00 00 00 20 00 00     ............. ..
    27a4:	00 00 00 00 00 00 40 00 00 00 00 00 00 00 00 80     ......@.........
	...
    27bc:	01 00 00 00 00 00 00 00 00 02 00 00 00 18 18 00     ................
    27cc:	00 00 04 00 00 18 3c 3c 18 00 00 08 00 00 18 3c     ......<<.......<
    27dc:	3c 18 00 00 10 00 00 00 18 18 00 00 00 20 00 00     <............ ..
    27ec:	00 00 00 00 00 00 40 00 00 00 00 00 00 00 00 80     ......@.........
	...
    2804:	01 00 00 00 18 18 00 00 00 02 00 00 18 3c 3c 18     .............<<.
    2814:	00 00 04 00 18 3c 7e 7e 3c 18 00 08 00 18 3c 7e     .....<~~<.....<~
    2824:	7e 3c 18 00 10 00 00 18 3c 3c 18 00 00 20 00 00     ~<......<<... ..
    2834:	00 18 18 00 00 00 40 00 00 00 00 00 00 00 00 80     ......@.........
    2844:	00 00 00 18 18 00 00 00 01 00 00 18 3c 3c 18 00     ............<<..
    2854:	00 02 00 18 3c 7e 7e 3c 18 00 04 18 3c 7e ff ff     ....<~~<....<~..
    2864:	7e 3c 18 08 18 3c 7e ff ff 7e 3c 18 10 00 18 3c     ~<...<~..~<....<
    2874:	7e 7e 3c 18 00 20 00 00 18 3c 3c 18 00 00 40 00     ~~<.. ...<<...@.
    2884:	00 00 18 18 00 00 00 80 00 00 00 18 18 00 00 00     ................
    2894:	01 00 00 18 3c 3c 18 00 00 02 00 18 3c 7e 7e 3c     ....<<......<~~<
    28a4:	18 00 04 18 3c 7e ff ff 7e 3c 18 08 18 3c 7e ff     ....<~..~<...<~.
    28b4:	ff 7e 3c 18 10 00 18 3c 7e 7e 3c 18 00 20 00 00     .~<....<~~<.. ..
    28c4:	18 3c 3c 18 00 00 40 00 00 00 18 18 00 00 00 80     .<<...@.........
    28d4:	00 00 00 18 18 00 00 00 01 00 00 18 3c 3c 18 00     ............<<..
    28e4:	00 02 00 18 3c 7e 7e 3c 18 00 04 18 3c 7e ff ff     ....<~~<....<~..
    28f4:	7e 3c 18 08 18 3c 7e ff ff 7e 3c 18 10 00 18 3c     ~<...<~..~<....<
    2904:	7e 7e 3c 18 00 20 00 00 18 3c 3c 18 00 00 40 00     ~~<.. ...<<...@.
    2914:	00 00 18 18 00 00 00 80 00 00 00 00 00 00 00 00     ................
    2924:	01 00 00 00 18 18 00 00 00 02 00 00 18 3c 3c 18     .............<<.
    2934:	00 00 04 00 18 3c 7e 7e 3c 18 00 08 00 18 3c 7e     .....<~~<.....<~
    2944:	7e 3c 18 00 10 00 00 18 3c 3c 18 00 00 20 00 00     ~<......<<... ..
    2954:	00 18 18 00 00 00 40 00 00 00 00 00 00 00 00 80     ......@.........
	...
    296c:	01 00 00 00 00 00 00 00 00 02 00 00 00 18 18 00     ................
    297c:	00 00 04 00 00 18 3c 3c 18 00 00 08 00 00 18 3c     ......<<.......<
    298c:	3c 18 00 00 10 00 00 00 18 18 00 00 00 20 00 00     <............ ..
    299c:	00 00 00 00 00 00 40 00 00 00 00 00 00 00 00 80     ......@.........
	...
    29b4:	01 00 00 00 00 00 00 00 00 02 00 00 00 00 00 00     ................
    29c4:	00 00 04 00 00 00 18 18 00 00 00 08 00 00 00 18     ................
    29d4:	18 00 00 00 10 00 00 00 00 00 00 00 00 20 00 00     ............. ..
    29e4:	00 00 00 00 00 00 40 00 00 00 00 00 00 00 00 80     ......@.........
	...
    29fc:	01 00 00 00 00 00 00 00 00 02 00 00 00 00 00 00     ................
    2a0c:	00 00 04 00 00 00 18 18 00 00 00 08 00 00 00 18     ................
    2a1c:	18 00 00 00 10 00 00 00 00 00 00 00 00 20 00 00     ............. ..
    2a2c:	00 00 00 00 00 00 40 00 00 00 00 00 00 00 00 80     ......@.........

00002a3c <__ctors_end>:
    2a3c:	11 24       	eor	r1, r1
    2a3e:	1f be       	out	0x3f, r1	; 63
    2a40:	cf e5       	ldi	r28, 0x5F	; 95
    2a42:	d8 e0       	ldi	r29, 0x08	; 8
    2a44:	de bf       	out	0x3e, r29	; 62
    2a46:	cd bf       	out	0x3d, r28	; 61

00002a48 <__do_copy_data>:
    2a48:	10 e0       	ldi	r17, 0x00	; 0
    2a4a:	a0 e6       	ldi	r26, 0x60	; 96
    2a4c:	b0 e0       	ldi	r27, 0x00	; 0
    2a4e:	ec e6       	ldi	r30, 0x6C	; 108
    2a50:	fe e2       	ldi	r31, 0x2E	; 46
    2a52:	02 c0       	rjmp	.+4      	; 0x2a58 <__do_copy_data+0x10>
    2a54:	05 90       	lpm	r0, Z+
    2a56:	0d 92       	st	X+, r0
    2a58:	a0 37       	cpi	r26, 0x70	; 112
    2a5a:	b1 07       	cpc	r27, r17
    2a5c:	d9 f7       	brne	.-10     	; 0x2a54 <__do_copy_data+0xc>

00002a5e <__do_clear_bss>:
    2a5e:	20 e0       	ldi	r18, 0x00	; 0
    2a60:	a0 e7       	ldi	r26, 0x70	; 112
    2a62:	b0 e0       	ldi	r27, 0x00	; 0
    2a64:	01 c0       	rjmp	.+2      	; 0x2a68 <.do_clear_bss_start>

00002a66 <.do_clear_bss_loop>:
    2a66:	1d 92       	st	X+, r1

00002a68 <.do_clear_bss_start>:
    2a68:	a5 37       	cpi	r26, 0x75	; 117
    2a6a:	b2 07       	cpc	r27, r18
    2a6c:	e1 f7       	brne	.-8      	; 0x2a66 <.do_clear_bss_loop>
    2a6e:	0e 94 3d 15 	call	0x2a7a	; 0x2a7a <main>
    2a72:	0c 94 34 17 	jmp	0x2e68	; 0x2e68 <_exit>

00002a76 <__bad_interrupt>:
    2a76:	0c 94 00 00 	jmp	0	; 0x0 <__vectors>

00002a7a <main>:
#include "SPI.h"
#include "timer.h"

int main (void)
{	
	DDRA=0xFF;
    2a7a:	8f ef       	ldi	r24, 0xFF	; 255
    2a7c:	8a bb       	out	0x1a, r24	; 26
	PORTA=0x01;
    2a7e:	81 e0       	ldi	r24, 0x01	; 1
    2a80:	8b bb       	out	0x1b, r24	; 27
	timer_init();
    2a82:	0e 94 2d 16 	call	0x2c5a	; 0x2c5a <timer_init>
	SPI_master_init();
    2a86:	0e 94 4e 15 	call	0x2a9c	; 0x2a9c <SPI_master_init>
	sei();
    2a8a:	78 94       	sei
    2a8c:	ff cf       	rjmp	.-2      	; 0x2a8c <main+0x12>

00002a8e <SPI_set_SS_line>:
}

/*For the SPI: low on the SS line is ON, high is OFF	*/
void SPI_set_SS_line(const bool x)	//	For x:
{										//		0 - nothing is sending by SPI
	if (x==0){							//		1 - set SS line
    2a8e:	81 11       	cpse	r24, r1
    2a90:	02 c0       	rjmp	.+4      	; 0x2a96 <SPI_set_SS_line+0x8>
		PORTB|=_BV(PB4);				
    2a92:	c4 9a       	sbi	0x18, 4	; 24
    2a94:	01 c0       	rjmp	.+2      	; 0x2a98 <SPI_set_SS_line+0xa>
	}else if (x==1){
		PORTB&=~(_BV(PB4));
    2a96:	c4 98       	cbi	0x18, 4	; 24
	}
	asm volatile ("nop");
    2a98:	00 00       	nop
    2a9a:	08 95       	ret

00002a9c <SPI_master_init>:
#include "animations.h"

/*Enable SPI in master mode with interrupts*/
void SPI_master_init(void)
{
	DDRB |= _BV(PB5) | _BV(PB7) | _BV(PB4);		//MOSI, SCK, SS are outputs
    2a9c:	87 b3       	in	r24, 0x17	; 23
    2a9e:	80 6b       	ori	r24, 0xB0	; 176
    2aa0:	87 bb       	out	0x17, r24	; 23
	SPI_set_SS_line(0);
    2aa2:	80 e0       	ldi	r24, 0x00	; 0
    2aa4:	0e 94 47 15 	call	0x2a8e	; 0x2a8e <SPI_set_SS_line>
	SPCR = _BV(SPE) | _BV(MSTR) | _BV(SPIE);		//Enable SPI, Master, Interrupts
    2aa8:	80 ed       	ldi	r24, 0xD0	; 208
    2aaa:	8d b9       	out	0x0d, r24	; 13
	SPSR;
    2aac:	8e b1       	in	r24, 0x0e	; 14
	SPDR;	//Delete SPIF Flag
    2aae:	8f b1       	in	r24, 0x0f	; 15
    2ab0:	08 95       	ret

00002ab2 <__vector_12>:
	asm volatile ("nop");
}


ISR(SPI_STC_vect)
{
    2ab2:	1f 92       	push	r1
    2ab4:	0f 92       	push	r0
    2ab6:	0f b6       	in	r0, 0x3f	; 63
    2ab8:	0f 92       	push	r0
    2aba:	11 24       	eor	r1, r1
    2abc:	2f 93       	push	r18
    2abe:	3f 93       	push	r19
    2ac0:	4f 93       	push	r20
    2ac2:	5f 93       	push	r21
    2ac4:	6f 93       	push	r22
    2ac6:	7f 93       	push	r23
    2ac8:	8f 93       	push	r24
    2aca:	9f 93       	push	r25
    2acc:	af 93       	push	r26
    2ace:	bf 93       	push	r27
    2ad0:	ef 93       	push	r30
    2ad2:	ff 93       	push	r31
	SPI_set_SS_line(0);
    2ad4:	80 e0       	ldi	r24, 0x00	; 0
    2ad6:	0e 94 47 15 	call	0x2a8e	; 0x2a8e <SPI_set_SS_line>
	if (position>=9)
    2ada:	80 91 72 00 	lds	r24, 0x0072	; 0x800072 <position>
    2ade:	89 30       	cpi	r24, 0x09	; 9
    2ae0:	30 f0       	brcs	.+12     	; 0x2aee <__vector_12+0x3c>
	{
		layer++;
    2ae2:	80 91 73 00 	lds	r24, 0x0073	; 0x800073 <layer>
    2ae6:	8f 5f       	subi	r24, 0xFF	; 255
    2ae8:	80 93 73 00 	sts	0x0073, r24	; 0x800073 <layer>
    2aec:	a0 c0       	rjmp	.+320    	; 0x2c2e <__vector_12+0x17c>
	}else
	{
		SPI_set_SS_line(1);
    2aee:	81 e0       	ldi	r24, 0x01	; 1
    2af0:	0e 94 47 15 	call	0x2a8e	; 0x2a8e <SPI_set_SS_line>
		switch(anim)
    2af4:	80 91 60 00 	lds	r24, 0x0060	; 0x800060 <__data_start>
    2af8:	83 30       	cpi	r24, 0x03	; 3
    2afa:	09 f4       	brne	.+2      	; 0x2afe <__vector_12+0x4c>
    2afc:	45 c0       	rjmp	.+138    	; 0x2b88 <__vector_12+0xd6>
    2afe:	28 f4       	brcc	.+10     	; 0x2b0a <__vector_12+0x58>
    2b00:	81 30       	cpi	r24, 0x01	; 1
    2b02:	51 f0       	breq	.+20     	; 0x2b18 <__vector_12+0x66>
    2b04:	82 30       	cpi	r24, 0x02	; 2
    2b06:	21 f1       	breq	.+72     	; 0x2b50 <__vector_12+0x9e>
    2b08:	92 c0       	rjmp	.+292    	; 0x2c2e <__vector_12+0x17c>
    2b0a:	84 30       	cpi	r24, 0x04	; 4
    2b0c:	09 f4       	brne	.+2      	; 0x2b10 <__vector_12+0x5e>
    2b0e:	58 c0       	rjmp	.+176    	; 0x2bc0 <__vector_12+0x10e>
    2b10:	85 30       	cpi	r24, 0x05	; 5
    2b12:	09 f4       	brne	.+2      	; 0x2b16 <__vector_12+0x64>
    2b14:	71 c0       	rjmp	.+226    	; 0x2bf8 <__vector_12+0x146>
    2b16:	8b c0       	rjmp	.+278    	; 0x2c2e <__vector_12+0x17c>
		{
			case 1:
				SPDR=anim1[frame][layer][position];
    2b18:	80 91 73 00 	lds	r24, 0x0073	; 0x800073 <layer>
    2b1c:	90 e0       	ldi	r25, 0x00	; 0
    2b1e:	30 91 74 00 	lds	r19, 0x0074	; 0x800074 <frame>
    2b22:	20 91 72 00 	lds	r18, 0x0072	; 0x800072 <position>
    2b26:	fc 01       	movw	r30, r24
    2b28:	ee 0f       	add	r30, r30
    2b2a:	ff 1f       	adc	r31, r31
    2b2c:	ee 0f       	add	r30, r30
    2b2e:	ff 1f       	adc	r31, r31
    2b30:	ee 0f       	add	r30, r30
    2b32:	ff 1f       	adc	r31, r31
    2b34:	e8 0f       	add	r30, r24
    2b36:	f9 1f       	adc	r31, r25
    2b38:	88 e4       	ldi	r24, 0x48	; 72
    2b3a:	38 9f       	mul	r19, r24
    2b3c:	e0 0d       	add	r30, r0
    2b3e:	f1 1d       	adc	r31, r1
    2b40:	11 24       	eor	r1, r1
    2b42:	e4 59       	subi	r30, 0x94	; 148
    2b44:	f8 4d       	sbci	r31, 0xD8	; 216
    2b46:	e2 0f       	add	r30, r18
    2b48:	f1 1d       	adc	r31, r1
    2b4a:	84 91       	lpm	r24, Z
    2b4c:	8f b9       	out	0x0f, r24	; 15
				break;
    2b4e:	6f c0       	rjmp	.+222    	; 0x2c2e <__vector_12+0x17c>
			case 2:
				SPDR=anim2[frame][layer][position];
    2b50:	80 91 73 00 	lds	r24, 0x0073	; 0x800073 <layer>
    2b54:	90 e0       	ldi	r25, 0x00	; 0
    2b56:	30 91 74 00 	lds	r19, 0x0074	; 0x800074 <frame>
    2b5a:	20 91 72 00 	lds	r18, 0x0072	; 0x800072 <position>
    2b5e:	fc 01       	movw	r30, r24
    2b60:	ee 0f       	add	r30, r30
    2b62:	ff 1f       	adc	r31, r31
    2b64:	ee 0f       	add	r30, r30
    2b66:	ff 1f       	adc	r31, r31
    2b68:	ee 0f       	add	r30, r30
    2b6a:	ff 1f       	adc	r31, r31
    2b6c:	e8 0f       	add	r30, r24
    2b6e:	f9 1f       	adc	r31, r25
    2b70:	88 e4       	ldi	r24, 0x48	; 72
    2b72:	38 9f       	mul	r19, r24
    2b74:	e0 0d       	add	r30, r0
    2b76:	f1 1d       	adc	r31, r1
    2b78:	11 24       	eor	r1, r1
    2b7a:	ec 5e       	subi	r30, 0xEC	; 236
    2b7c:	fd 4d       	sbci	r31, 0xDD	; 221
    2b7e:	e2 0f       	add	r30, r18
    2b80:	f1 1d       	adc	r31, r1
    2b82:	84 91       	lpm	r24, Z
    2b84:	8f b9       	out	0x0f, r24	; 15
				break;
    2b86:	53 c0       	rjmp	.+166    	; 0x2c2e <__vector_12+0x17c>
			case 3:
				SPDR=anim3[frame][layer][position];
    2b88:	80 91 73 00 	lds	r24, 0x0073	; 0x800073 <layer>
    2b8c:	90 e0       	ldi	r25, 0x00	; 0
    2b8e:	30 91 74 00 	lds	r19, 0x0074	; 0x800074 <frame>
    2b92:	20 91 72 00 	lds	r18, 0x0072	; 0x800072 <position>
    2b96:	fc 01       	movw	r30, r24
    2b98:	ee 0f       	add	r30, r30
    2b9a:	ff 1f       	adc	r31, r31
    2b9c:	ee 0f       	add	r30, r30
    2b9e:	ff 1f       	adc	r31, r31
    2ba0:	ee 0f       	add	r30, r30
    2ba2:	ff 1f       	adc	r31, r31
    2ba4:	e8 0f       	add	r30, r24
    2ba6:	f9 1f       	adc	r31, r25
    2ba8:	88 e4       	ldi	r24, 0x48	; 72
    2baa:	38 9f       	mul	r19, r24
    2bac:	e0 0d       	add	r30, r0
    2bae:	f1 1d       	adc	r31, r1
    2bb0:	11 24       	eor	r1, r1
    2bb2:	e4 56       	subi	r30, 0x64	; 100
    2bb4:	fd 4e       	sbci	r31, 0xED	; 237
    2bb6:	e2 0f       	add	r30, r18
    2bb8:	f1 1d       	adc	r31, r1
    2bba:	84 91       	lpm	r24, Z
    2bbc:	8f b9       	out	0x0f, r24	; 15
				break;
    2bbe:	37 c0       	rjmp	.+110    	; 0x2c2e <__vector_12+0x17c>
			case 4:
				SPDR=anim4[frame][layer][position];
    2bc0:	80 91 73 00 	lds	r24, 0x0073	; 0x800073 <layer>
    2bc4:	90 e0       	ldi	r25, 0x00	; 0
    2bc6:	30 91 74 00 	lds	r19, 0x0074	; 0x800074 <frame>
    2bca:	20 91 72 00 	lds	r18, 0x0072	; 0x800072 <position>
    2bce:	fc 01       	movw	r30, r24
    2bd0:	ee 0f       	add	r30, r30
    2bd2:	ff 1f       	adc	r31, r31
    2bd4:	ee 0f       	add	r30, r30
    2bd6:	ff 1f       	adc	r31, r31
    2bd8:	ee 0f       	add	r30, r30
    2bda:	ff 1f       	adc	r31, r31
    2bdc:	e8 0f       	add	r30, r24
    2bde:	f9 1f       	adc	r31, r25
    2be0:	88 e4       	ldi	r24, 0x48	; 72
    2be2:	38 9f       	mul	r19, r24
    2be4:	e0 0d       	add	r30, r0
    2be6:	f1 1d       	adc	r31, r1
    2be8:	11 24       	eor	r1, r1
    2bea:	ec 5b       	subi	r30, 0xBC	; 188
    2bec:	fb 4f       	sbci	r31, 0xFB	; 251
    2bee:	e2 0f       	add	r30, r18
    2bf0:	f1 1d       	adc	r31, r1
    2bf2:	84 91       	lpm	r24, Z
    2bf4:	8f b9       	out	0x0f, r24	; 15
				break;
    2bf6:	1b c0       	rjmp	.+54     	; 0x2c2e <__vector_12+0x17c>
			case 5:
				SPDR=anim5[frame][layer][position];
    2bf8:	80 91 73 00 	lds	r24, 0x0073	; 0x800073 <layer>
    2bfc:	90 e0       	ldi	r25, 0x00	; 0
    2bfe:	30 91 74 00 	lds	r19, 0x0074	; 0x800074 <frame>
    2c02:	20 91 72 00 	lds	r18, 0x0072	; 0x800072 <position>
    2c06:	fc 01       	movw	r30, r24
    2c08:	ee 0f       	add	r30, r30
    2c0a:	ff 1f       	adc	r31, r31
    2c0c:	ee 0f       	add	r30, r30
    2c0e:	ff 1f       	adc	r31, r31
    2c10:	ee 0f       	add	r30, r30
    2c12:	ff 1f       	adc	r31, r31
    2c14:	e8 0f       	add	r30, r24
    2c16:	f9 1f       	adc	r31, r25
    2c18:	88 e4       	ldi	r24, 0x48	; 72
    2c1a:	38 9f       	mul	r19, r24
    2c1c:	e0 0d       	add	r30, r0
    2c1e:	f1 1d       	adc	r31, r1
    2c20:	11 24       	eor	r1, r1
    2c22:	ec 5a       	subi	r30, 0xAC	; 172
    2c24:	ff 4f       	sbci	r31, 0xFF	; 255
    2c26:	e2 0f       	add	r30, r18
    2c28:	f1 1d       	adc	r31, r1
    2c2a:	84 91       	lpm	r24, Z
    2c2c:	8f b9       	out	0x0f, r24	; 15
				break;

		}
	}
	position++;
    2c2e:	80 91 72 00 	lds	r24, 0x0072	; 0x800072 <position>
    2c32:	8f 5f       	subi	r24, 0xFF	; 255
    2c34:	80 93 72 00 	sts	0x0072, r24	; 0x800072 <position>

}
    2c38:	ff 91       	pop	r31
    2c3a:	ef 91       	pop	r30
    2c3c:	bf 91       	pop	r27
    2c3e:	af 91       	pop	r26
    2c40:	9f 91       	pop	r25
    2c42:	8f 91       	pop	r24
    2c44:	7f 91       	pop	r23
    2c46:	6f 91       	pop	r22
    2c48:	5f 91       	pop	r21
    2c4a:	4f 91       	pop	r20
    2c4c:	3f 91       	pop	r19
    2c4e:	2f 91       	pop	r18
    2c50:	0f 90       	pop	r0
    2c52:	0f be       	out	0x3f, r0	; 63
    2c54:	0f 90       	pop	r0
    2c56:	1f 90       	pop	r1
    2c58:	18 95       	reti

00002c5a <timer_init>:
#include "SPI.h"
#include "animations.h"

void timer_init(void)
{
	TCCR1B=_BV(WGM12) | (_BV(CS12)|_BV(CS10)) ;		//Set timer1 to the CTC mode with TOP described in OCR1A, prescaler=1024
    2c5a:	8d e0       	ldi	r24, 0x0D	; 13
    2c5c:	8e bd       	out	0x2e, r24	; 46
	OCR1A=0x0006;									//Set frequency of changing layers on the cube: 14745600/6(OCR1A)*1024=>2400/8=300Hz
    2c5e:	86 e0       	ldi	r24, 0x06	; 6
    2c60:	90 e0       	ldi	r25, 0x00	; 0
    2c62:	9b bd       	out	0x2b, r25	; 43
    2c64:	8a bd       	out	0x2a, r24	; 42
	TIMSK=_BV(OCIE1A);								//Enable compare match Interrupts
    2c66:	80 e1       	ldi	r24, 0x10	; 16
    2c68:	89 bf       	out	0x39, r24	; 57
    2c6a:	08 95       	ret

00002c6c <__vector_7>:
}

ISR(TIMER1_COMPA_vect)
{
    2c6c:	1f 92       	push	r1
    2c6e:	0f 92       	push	r0
    2c70:	0f b6       	in	r0, 0x3f	; 63
    2c72:	0f 92       	push	r0
    2c74:	11 24       	eor	r1, r1
    2c76:	2f 93       	push	r18
    2c78:	3f 93       	push	r19
    2c7a:	4f 93       	push	r20
    2c7c:	5f 93       	push	r21
    2c7e:	6f 93       	push	r22
    2c80:	7f 93       	push	r23
    2c82:	8f 93       	push	r24
    2c84:	9f 93       	push	r25
    2c86:	af 93       	push	r26
    2c88:	bf 93       	push	r27
    2c8a:	ef 93       	push	r30
    2c8c:	ff 93       	push	r31
	position=0;
    2c8e:	10 92 72 00 	sts	0x0072, r1	; 0x800072 <position>
	if (layer>=8)
    2c92:	80 91 73 00 	lds	r24, 0x0073	; 0x800073 <layer>
    2c96:	88 30       	cpi	r24, 0x08	; 8
    2c98:	88 f1       	brcs	.+98     	; 0x2cfc <__vector_7+0x90>
	{
		layer=0;
    2c9a:	10 92 73 00 	sts	0x0073, r1	; 0x800073 <layer>
		frame_repeats++;
    2c9e:	80 91 71 00 	lds	r24, 0x0071	; 0x800071 <frame_repeats>
    2ca2:	8f 5f       	subi	r24, 0xFF	; 255
    2ca4:	80 93 71 00 	sts	0x0071, r24	; 0x800071 <frame_repeats>
		if (frame_repeats>=frame_in_anim_repeats[anim])
    2ca8:	90 91 60 00 	lds	r25, 0x0060	; 0x800060 <__data_start>
    2cac:	29 2f       	mov	r18, r25
    2cae:	30 e0       	ldi	r19, 0x00	; 0
    2cb0:	f9 01       	movw	r30, r18
    2cb2:	ea 59       	subi	r30, 0x9A	; 154
    2cb4:	ff 4f       	sbci	r31, 0xFF	; 255
    2cb6:	40 81       	ld	r20, Z
    2cb8:	84 17       	cp	r24, r20
    2cba:	00 f1       	brcs	.+64     	; 0x2cfc <__vector_7+0x90>
		{
			frame++;
    2cbc:	80 91 74 00 	lds	r24, 0x0074	; 0x800074 <frame>
    2cc0:	8f 5f       	subi	r24, 0xFF	; 255
    2cc2:	80 93 74 00 	sts	0x0074, r24	; 0x800074 <frame>
			if (frame==anims_frames[anim])
    2cc6:	f9 01       	movw	r30, r18
    2cc8:	e5 59       	subi	r30, 0x95	; 149
    2cca:	ff 4f       	sbci	r31, 0xFF	; 255
    2ccc:	40 81       	ld	r20, Z
    2cce:	84 13       	cpse	r24, r20
    2cd0:	13 c0       	rjmp	.+38     	; 0x2cf8 <__vector_7+0x8c>
			{
				frame=0;
    2cd2:	10 92 74 00 	sts	0x0074, r1	; 0x800074 <frame>
				anim_repeats++;
    2cd6:	80 91 70 00 	lds	r24, 0x0070	; 0x800070 <__data_end>
    2cda:	8f 5f       	subi	r24, 0xFF	; 255
    2cdc:	80 93 70 00 	sts	0x0070, r24	; 0x800070 <__data_end>
				if (anim_repeats==anims_repeats[anim])
    2ce0:	f9 01       	movw	r30, r18
    2ce2:	ef 59       	subi	r30, 0x9F	; 159
    2ce4:	ff 4f       	sbci	r31, 0xFF	; 255
    2ce6:	20 81       	ld	r18, Z
    2ce8:	82 13       	cpse	r24, r18
    2cea:	06 c0       	rjmp	.+12     	; 0x2cf8 <__vector_7+0x8c>
				{
					anim_repeats=0;
    2cec:	10 92 70 00 	sts	0x0070, r1	; 0x800070 <__data_end>
					anim=anim%count_of_anims+1;
    2cf0:	93 70       	andi	r25, 0x03	; 3
    2cf2:	9f 5f       	subi	r25, 0xFF	; 255
    2cf4:	90 93 60 00 	sts	0x0060, r25	; 0x800060 <__data_start>

				}
			}
			frame_repeats=0;
    2cf8:	10 92 71 00 	sts	0x0071, r1	; 0x800071 <frame_repeats>
		}
	}
	
		
	SPI_set_SS_line(1);
    2cfc:	81 e0       	ldi	r24, 0x01	; 1
    2cfe:	0e 94 47 15 	call	0x2a8e	; 0x2a8e <SPI_set_SS_line>
	switch(anim)
    2d02:	80 91 60 00 	lds	r24, 0x0060	; 0x800060 <__data_start>
    2d06:	83 30       	cpi	r24, 0x03	; 3
    2d08:	09 f4       	brne	.+2      	; 0x2d0c <__vector_7+0xa0>
    2d0a:	45 c0       	rjmp	.+138    	; 0x2d96 <__vector_7+0x12a>
    2d0c:	28 f4       	brcc	.+10     	; 0x2d18 <__vector_7+0xac>
    2d0e:	81 30       	cpi	r24, 0x01	; 1
    2d10:	51 f0       	breq	.+20     	; 0x2d26 <__vector_7+0xba>
    2d12:	82 30       	cpi	r24, 0x02	; 2
    2d14:	21 f1       	breq	.+72     	; 0x2d5e <__vector_7+0xf2>
    2d16:	92 c0       	rjmp	.+292    	; 0x2e3c <__vector_7+0x1d0>
    2d18:	84 30       	cpi	r24, 0x04	; 4
    2d1a:	09 f4       	brne	.+2      	; 0x2d1e <__vector_7+0xb2>
    2d1c:	58 c0       	rjmp	.+176    	; 0x2dce <__vector_7+0x162>
    2d1e:	85 30       	cpi	r24, 0x05	; 5
    2d20:	09 f4       	brne	.+2      	; 0x2d24 <__vector_7+0xb8>
    2d22:	71 c0       	rjmp	.+226    	; 0x2e06 <__vector_7+0x19a>
    2d24:	8b c0       	rjmp	.+278    	; 0x2e3c <__vector_7+0x1d0>
	{
		case 1:
			SPDR=anim1[frame][layer][position];
    2d26:	80 91 73 00 	lds	r24, 0x0073	; 0x800073 <layer>
    2d2a:	90 e0       	ldi	r25, 0x00	; 0
    2d2c:	30 91 74 00 	lds	r19, 0x0074	; 0x800074 <frame>
    2d30:	20 91 72 00 	lds	r18, 0x0072	; 0x800072 <position>
    2d34:	fc 01       	movw	r30, r24
    2d36:	ee 0f       	add	r30, r30
    2d38:	ff 1f       	adc	r31, r31
    2d3a:	ee 0f       	add	r30, r30
    2d3c:	ff 1f       	adc	r31, r31
    2d3e:	ee 0f       	add	r30, r30
    2d40:	ff 1f       	adc	r31, r31
    2d42:	e8 0f       	add	r30, r24
    2d44:	f9 1f       	adc	r31, r25
    2d46:	88 e4       	ldi	r24, 0x48	; 72
    2d48:	38 9f       	mul	r19, r24
    2d4a:	e0 0d       	add	r30, r0
    2d4c:	f1 1d       	adc	r31, r1
    2d4e:	11 24       	eor	r1, r1
    2d50:	e4 59       	subi	r30, 0x94	; 148
    2d52:	f8 4d       	sbci	r31, 0xD8	; 216
    2d54:	e2 0f       	add	r30, r18
    2d56:	f1 1d       	adc	r31, r1
    2d58:	84 91       	lpm	r24, Z
    2d5a:	8f b9       	out	0x0f, r24	; 15
			break;
    2d5c:	6f c0       	rjmp	.+222    	; 0x2e3c <__vector_7+0x1d0>
		case 2:
			SPDR=anim2[frame][layer][position];
    2d5e:	80 91 73 00 	lds	r24, 0x0073	; 0x800073 <layer>
    2d62:	90 e0       	ldi	r25, 0x00	; 0
    2d64:	30 91 74 00 	lds	r19, 0x0074	; 0x800074 <frame>
    2d68:	20 91 72 00 	lds	r18, 0x0072	; 0x800072 <position>
    2d6c:	fc 01       	movw	r30, r24
    2d6e:	ee 0f       	add	r30, r30
    2d70:	ff 1f       	adc	r31, r31
    2d72:	ee 0f       	add	r30, r30
    2d74:	ff 1f       	adc	r31, r31
    2d76:	ee 0f       	add	r30, r30
    2d78:	ff 1f       	adc	r31, r31
    2d7a:	e8 0f       	add	r30, r24
    2d7c:	f9 1f       	adc	r31, r25
    2d7e:	88 e4       	ldi	r24, 0x48	; 72
    2d80:	38 9f       	mul	r19, r24
    2d82:	e0 0d       	add	r30, r0
    2d84:	f1 1d       	adc	r31, r1
    2d86:	11 24       	eor	r1, r1
    2d88:	ec 5e       	subi	r30, 0xEC	; 236
    2d8a:	fd 4d       	sbci	r31, 0xDD	; 221
    2d8c:	e2 0f       	add	r30, r18
    2d8e:	f1 1d       	adc	r31, r1
    2d90:	84 91       	lpm	r24, Z
    2d92:	8f b9       	out	0x0f, r24	; 15
			break;
    2d94:	53 c0       	rjmp	.+166    	; 0x2e3c <__vector_7+0x1d0>
		case 3:
			SPDR=anim3[frame][layer][position];
    2d96:	80 91 73 00 	lds	r24, 0x0073	; 0x800073 <layer>
    2d9a:	90 e0       	ldi	r25, 0x00	; 0
    2d9c:	30 91 74 00 	lds	r19, 0x0074	; 0x800074 <frame>
    2da0:	20 91 72 00 	lds	r18, 0x0072	; 0x800072 <position>
    2da4:	fc 01       	movw	r30, r24
    2da6:	ee 0f       	add	r30, r30
    2da8:	ff 1f       	adc	r31, r31
    2daa:	ee 0f       	add	r30, r30
    2dac:	ff 1f       	adc	r31, r31
    2dae:	ee 0f       	add	r30, r30
    2db0:	ff 1f       	adc	r31, r31
    2db2:	e8 0f       	add	r30, r24
    2db4:	f9 1f       	adc	r31, r25
    2db6:	88 e4       	ldi	r24, 0x48	; 72
    2db8:	38 9f       	mul	r19, r24
    2dba:	e0 0d       	add	r30, r0
    2dbc:	f1 1d       	adc	r31, r1
    2dbe:	11 24       	eor	r1, r1
    2dc0:	e4 56       	subi	r30, 0x64	; 100
    2dc2:	fd 4e       	sbci	r31, 0xED	; 237
    2dc4:	e2 0f       	add	r30, r18
    2dc6:	f1 1d       	adc	r31, r1
    2dc8:	84 91       	lpm	r24, Z
    2dca:	8f b9       	out	0x0f, r24	; 15
			break;
    2dcc:	37 c0       	rjmp	.+110    	; 0x2e3c <__vector_7+0x1d0>
		case 4:
			SPDR=anim4[frame][layer][position];
    2dce:	80 91 73 00 	lds	r24, 0x0073	; 0x800073 <layer>
    2dd2:	90 e0       	ldi	r25, 0x00	; 0
    2dd4:	30 91 74 00 	lds	r19, 0x0074	; 0x800074 <frame>
    2dd8:	20 91 72 00 	lds	r18, 0x0072	; 0x800072 <position>
    2ddc:	fc 01       	movw	r30, r24
    2dde:	ee 0f       	add	r30, r30
    2de0:	ff 1f       	adc	r31, r31
    2de2:	ee 0f       	add	r30, r30
    2de4:	ff 1f       	adc	r31, r31
    2de6:	ee 0f       	add	r30, r30
    2de8:	ff 1f       	adc	r31, r31
    2dea:	e8 0f       	add	r30, r24
    2dec:	f9 1f       	adc	r31, r25
    2dee:	88 e4       	ldi	r24, 0x48	; 72
    2df0:	38 9f       	mul	r19, r24
    2df2:	e0 0d       	add	r30, r0
    2df4:	f1 1d       	adc	r31, r1
    2df6:	11 24       	eor	r1, r1
    2df8:	ec 5b       	subi	r30, 0xBC	; 188
    2dfa:	fb 4f       	sbci	r31, 0xFB	; 251
    2dfc:	e2 0f       	add	r30, r18
    2dfe:	f1 1d       	adc	r31, r1
    2e00:	84 91       	lpm	r24, Z
    2e02:	8f b9       	out	0x0f, r24	; 15
			break;
    2e04:	1b c0       	rjmp	.+54     	; 0x2e3c <__vector_7+0x1d0>
		case 5:
			SPDR=anim5[frame][layer][position];
    2e06:	80 91 73 00 	lds	r24, 0x0073	; 0x800073 <layer>
    2e0a:	90 e0       	ldi	r25, 0x00	; 0
    2e0c:	30 91 74 00 	lds	r19, 0x0074	; 0x800074 <frame>
    2e10:	20 91 72 00 	lds	r18, 0x0072	; 0x800072 <position>
    2e14:	fc 01       	movw	r30, r24
    2e16:	ee 0f       	add	r30, r30
    2e18:	ff 1f       	adc	r31, r31
    2e1a:	ee 0f       	add	r30, r30
    2e1c:	ff 1f       	adc	r31, r31
    2e1e:	ee 0f       	add	r30, r30
    2e20:	ff 1f       	adc	r31, r31
    2e22:	e8 0f       	add	r30, r24
    2e24:	f9 1f       	adc	r31, r25
    2e26:	88 e4       	ldi	r24, 0x48	; 72
    2e28:	38 9f       	mul	r19, r24
    2e2a:	e0 0d       	add	r30, r0
    2e2c:	f1 1d       	adc	r31, r1
    2e2e:	11 24       	eor	r1, r1
    2e30:	ec 5a       	subi	r30, 0xAC	; 172
    2e32:	ff 4f       	sbci	r31, 0xFF	; 255
    2e34:	e2 0f       	add	r30, r18
    2e36:	f1 1d       	adc	r31, r1
    2e38:	84 91       	lpm	r24, Z
    2e3a:	8f b9       	out	0x0f, r24	; 15
			break;

	}
	position++;
    2e3c:	80 91 72 00 	lds	r24, 0x0072	; 0x800072 <position>
    2e40:	8f 5f       	subi	r24, 0xFF	; 255
    2e42:	80 93 72 00 	sts	0x0072, r24	; 0x800072 <position>
}
    2e46:	ff 91       	pop	r31
    2e48:	ef 91       	pop	r30
    2e4a:	bf 91       	pop	r27
    2e4c:	af 91       	pop	r26
    2e4e:	9f 91       	pop	r25
    2e50:	8f 91       	pop	r24
    2e52:	7f 91       	pop	r23
    2e54:	6f 91       	pop	r22
    2e56:	5f 91       	pop	r21
    2e58:	4f 91       	pop	r20
    2e5a:	3f 91       	pop	r19
    2e5c:	2f 91       	pop	r18
    2e5e:	0f 90       	pop	r0
    2e60:	0f be       	out	0x3f, r0	; 63
    2e62:	0f 90       	pop	r0
    2e64:	1f 90       	pop	r1
    2e66:	18 95       	reti

00002e68 <_exit>:
    2e68:	f8 94       	cli

00002e6a <__stop_program>:
    2e6a:	ff cf       	rjmp	.-2      	; 0x2e6a <__stop_program>
